
Allocating common symbols
Common symbol       size              file

uart_tx_buf         0x106             CMakeFiles/kiibohd.elf.dir/Scan/UARTConnect/connect_scan.c.o
Connect_receive_RemoteCapabilityBuffer
                    0x6               CMakeFiles/kiibohd.elf.dir/Scan/UARTConnect/connect_scan.c.o
CLIHexDebugMode     0x1               CMakeFiles/kiibohd.elf.dir/main.c.o
CLIHistoryCurrent   0x1               CMakeFiles/kiibohd.elf.dir/main.c.o
usb_rx_byte_count_data
                    0x10              CMakeFiles/kiibohd.elf.dir/Output/pjrcUSB/arm/usb_dev.c.o
CLILEDState         0x1               CMakeFiles/kiibohd.elf.dir/main.c.o
CLIDictionariesUsed
                    0x1               CMakeFiles/kiibohd.elf.dir/main.c.o
Macro_rotationLayer
                    0x2               CMakeFiles/kiibohd.elf.dir/Macro/PartialMap/macro.c.o
CLIHistoryBuffer    0x3e8             CMakeFiles/kiibohd.elf.dir/main.c.o
uart_tx_status      0x4               CMakeFiles/kiibohd.elf.dir/Scan/UARTConnect/connect_scan.c.o
USBKeys_SysCtrl     0x1               CMakeFiles/kiibohd.elf.dir/Output/pjrcUSB/output_com.c.o
Matrix_scanArray    0x13b             CMakeFiles/kiibohd.elf.dir/Scan/MatrixARM/matrix_scan.c.o
CLILineBuffer       0x65              CMakeFiles/kiibohd.elf.dir/main.c.o
I2C_RxBufferPtr     0x12c             CMakeFiles/kiibohd.elf.dir/Scan/ISSILed/led_scan.c.o
macroTriggerListBuffer
                    0x10b             CMakeFiles/kiibohd.elf.dir/Macro/PartialMap/macro.c.o
ResultMacroRecordList
                    0x126             CMakeFiles/kiibohd.elf.dir/Macro/PartialMap/macro.c.o
CLIHistoryHead      0x1               CMakeFiles/kiibohd.elf.dir/main.c.o
LayerState          0x3               CMakeFiles/kiibohd.elf.dir/Macro/PartialMap/macro.c.o
Connect_receive_RemoteCapabilityArgs
                    0x19              CMakeFiles/kiibohd.elf.dir/Scan/UARTConnect/connect_scan.c.o
usb_joystick_data   0xc               CMakeFiles/kiibohd.elf.dir/Output/pjrcUSB/arm/usb_joystick.c.o
USBKeys_Keys        0x1b              CMakeFiles/kiibohd.elf.dir/Output/pjrcUSB/output_com.c.o
Connect_receive_ScanCodeDeviceId
                    0x1               CMakeFiles/kiibohd.elf.dir/Scan/UARTConnect/connect_scan.c.o
uart_rx_status      0x8               CMakeFiles/kiibohd.elf.dir/Scan/UARTConnect/connect_scan.c.o
LED_pageBuffer      0x92              CMakeFiles/kiibohd.elf.dir/Scan/ISSILed/led_scan.c.o
uart_rx_buf         0x104             CMakeFiles/kiibohd.elf.dir/Scan/UARTConnect/connect_scan.c.o
macroTriggerListLayerCache
                    0x59              CMakeFiles/kiibohd.elf.dir/Macro/PartialMap/macro.c.o
I2C_TxBufferPtr     0x12c             CMakeFiles/kiibohd.elf.dir/Scan/ISSILed/led_scan.c.o
Connect_receive_ScanCodeBuffer
                    0x3               CMakeFiles/kiibohd.elf.dir/Scan/UARTConnect/connect_scan.c.o
CLIDict             0x28              CMakeFiles/kiibohd.elf.dir/main.c.o
LCD_layerStackExact
                    0x8               CMakeFiles/kiibohd.elf.dir/Scan/STLcd/lcd_scan.c.o
CLIHistoryTail      0x1               CMakeFiles/kiibohd.elf.dir/main.c.o
USBKeys_KeysCLI     0x1b              CMakeFiles/kiibohd.elf.dir/Output/pjrcUSB/output_com.c.o
macroInterconnectCache
                    0x10b             CMakeFiles/kiibohd.elf.dir/Macro/PartialMap/macro.c.o
CLIDictNames        0x28              CMakeFiles/kiibohd.elf.dir/main.c.o
Connect_receive_ScanCodeBufferPos
                    0x1               CMakeFiles/kiibohd.elf.dir/Scan/UARTConnect/connect_scan.c.o
CLILineBufferCurrent
                    0x1               CMakeFiles/kiibohd.elf.dir/main.c.o
USBKeys_ConsCtrl    0x2               CMakeFiles/kiibohd.elf.dir/Output/pjrcUSB/output_com.c.o
TriggerMacroRecordList
                    0xda              CMakeFiles/kiibohd.elf.dir/Macro/PartialMap/macro.c.o

Discarded input sections

 .group         0x0000000000000000        0x8 CMakeFiles/kiibohd.elf.dir/main.c.o
 .group         0x0000000000000000        0x8 CMakeFiles/kiibohd.elf.dir/main.c.o
 .group         0x0000000000000000        0x8 CMakeFiles/kiibohd.elf.dir/main.c.o
 .group         0x0000000000000000        0x8 CMakeFiles/kiibohd.elf.dir/main.c.o
 .group         0x0000000000000000        0x8 CMakeFiles/kiibohd.elf.dir/main.c.o
 .group         0x0000000000000000        0x8 CMakeFiles/kiibohd.elf.dir/main.c.o
 .group         0x0000000000000000        0x8 CMakeFiles/kiibohd.elf.dir/main.c.o
 .group         0x0000000000000000        0x8 CMakeFiles/kiibohd.elf.dir/main.c.o
 .group         0x0000000000000000        0x8 CMakeFiles/kiibohd.elf.dir/main.c.o
 .group         0x0000000000000000        0x8 CMakeFiles/kiibohd.elf.dir/main.c.o
 .group         0x0000000000000000        0x8 CMakeFiles/kiibohd.elf.dir/main.c.o
 .group         0x0000000000000000        0x8 CMakeFiles/kiibohd.elf.dir/main.c.o
 .group         0x0000000000000000        0x8 CMakeFiles/kiibohd.elf.dir/main.c.o
 .text          0x0000000000000000        0x0 CMakeFiles/kiibohd.elf.dir/main.c.o
 .data          0x0000000000000000        0x0 CMakeFiles/kiibohd.elf.dir/main.c.o
 .bss           0x0000000000000000        0x0 CMakeFiles/kiibohd.elf.dir/main.c.o
 .group         0x0000000000000000        0x8 CMakeFiles/kiibohd.elf.dir/Lib/mk20dx.c.o
 .group         0x0000000000000000        0x8 CMakeFiles/kiibohd.elf.dir/Lib/mk20dx.c.o
 .group         0x0000000000000000        0x8 CMakeFiles/kiibohd.elf.dir/Lib/mk20dx.c.o
 .group         0x0000000000000000        0x8 CMakeFiles/kiibohd.elf.dir/Lib/mk20dx.c.o
 .group         0x0000000000000000        0x8 CMakeFiles/kiibohd.elf.dir/Lib/mk20dx.c.o
 .group         0x0000000000000000        0x8 CMakeFiles/kiibohd.elf.dir/Lib/mk20dx.c.o
 .group         0x0000000000000000        0x8 CMakeFiles/kiibohd.elf.dir/Lib/mk20dx.c.o
 .group         0x0000000000000000        0x8 CMakeFiles/kiibohd.elf.dir/Lib/mk20dx.c.o
 .group         0x0000000000000000        0x8 CMakeFiles/kiibohd.elf.dir/Lib/mk20dx.c.o
 .group         0x0000000000000000        0x8 CMakeFiles/kiibohd.elf.dir/Lib/mk20dx.c.o
 .text          0x0000000000000000        0x0 CMakeFiles/kiibohd.elf.dir/Lib/mk20dx.c.o
 .data          0x0000000000000000        0x0 CMakeFiles/kiibohd.elf.dir/Lib/mk20dx.c.o
 .bss           0x0000000000000000        0x0 CMakeFiles/kiibohd.elf.dir/Lib/mk20dx.c.o
 .text.memcmp   0x0000000000000000       0x1e CMakeFiles/kiibohd.elf.dir/Lib/mk20dx.c.o
 .text._sbrk    0x0000000000000000       0x10 CMakeFiles/kiibohd.elf.dir/Lib/mk20dx.c.o
 .text.nvic_execution_priority
                0x0000000000000000       0x3c CMakeFiles/kiibohd.elf.dir/Lib/mk20dx.c.o
 .data.__brkval
                0x0000000000000000        0x4 CMakeFiles/kiibohd.elf.dir/Lib/mk20dx.c.o
 .debug_macro   0x0000000000000000      0x886 CMakeFiles/kiibohd.elf.dir/Lib/mk20dx.c.o
 .debug_macro   0x0000000000000000       0x22 CMakeFiles/kiibohd.elf.dir/Lib/mk20dx.c.o
 .debug_macro   0x0000000000000000       0x44 CMakeFiles/kiibohd.elf.dir/Lib/mk20dx.c.o
 .debug_macro   0x0000000000000000       0x58 CMakeFiles/kiibohd.elf.dir/Lib/mk20dx.c.o
 .debug_macro   0x0000000000000000       0x22 CMakeFiles/kiibohd.elf.dir/Lib/mk20dx.c.o
 .debug_macro   0x0000000000000000      0x1df CMakeFiles/kiibohd.elf.dir/Lib/mk20dx.c.o
 .debug_macro   0x0000000000000000       0x76 CMakeFiles/kiibohd.elf.dir/Lib/mk20dx.c.o
 .debug_macro   0x0000000000000000       0x10 CMakeFiles/kiibohd.elf.dir/Lib/mk20dx.c.o
 .debug_macro   0x0000000000000000       0x9a CMakeFiles/kiibohd.elf.dir/Lib/mk20dx.c.o
 .group         0x0000000000000000        0x8 CMakeFiles/kiibohd.elf.dir/Lib/delay.c.o
 .group         0x0000000000000000        0x8 CMakeFiles/kiibohd.elf.dir/Lib/delay.c.o
 .group         0x0000000000000000        0x8 CMakeFiles/kiibohd.elf.dir/Lib/delay.c.o
 .group         0x0000000000000000        0x8 CMakeFiles/kiibohd.elf.dir/Lib/delay.c.o
 .group         0x0000000000000000        0x8 CMakeFiles/kiibohd.elf.dir/Lib/delay.c.o
 .group         0x0000000000000000        0x8 CMakeFiles/kiibohd.elf.dir/Lib/delay.c.o
 .group         0x0000000000000000        0x8 CMakeFiles/kiibohd.elf.dir/Lib/delay.c.o
 .group         0x0000000000000000        0x8 CMakeFiles/kiibohd.elf.dir/Lib/delay.c.o
 .text          0x0000000000000000        0x0 CMakeFiles/kiibohd.elf.dir/Lib/delay.c.o
 .data          0x0000000000000000        0x0 CMakeFiles/kiibohd.elf.dir/Lib/delay.c.o
 .bss           0x0000000000000000        0x0 CMakeFiles/kiibohd.elf.dir/Lib/delay.c.o
 .debug_macro   0x0000000000000000      0x886 CMakeFiles/kiibohd.elf.dir/Lib/delay.c.o
 .debug_macro   0x0000000000000000       0x22 CMakeFiles/kiibohd.elf.dir/Lib/delay.c.o
 .debug_macro   0x0000000000000000       0x44 CMakeFiles/kiibohd.elf.dir/Lib/delay.c.o
 .debug_macro   0x0000000000000000       0x58 CMakeFiles/kiibohd.elf.dir/Lib/delay.c.o
 .debug_macro   0x0000000000000000       0x22 CMakeFiles/kiibohd.elf.dir/Lib/delay.c.o
 .debug_macro   0x0000000000000000      0x1df CMakeFiles/kiibohd.elf.dir/Lib/delay.c.o
 .debug_macro   0x0000000000000000     0x3030 CMakeFiles/kiibohd.elf.dir/Lib/delay.c.o
 .group         0x0000000000000000        0x8 CMakeFiles/kiibohd.elf.dir/Scan/ISSILed/led_scan.c.o
 .group         0x0000000000000000        0x8 CMakeFiles/kiibohd.elf.dir/Scan/ISSILed/led_scan.c.o
 .group         0x0000000000000000        0x8 CMakeFiles/kiibohd.elf.dir/Scan/ISSILed/led_scan.c.o
 .group         0x0000000000000000        0x8 CMakeFiles/kiibohd.elf.dir/Scan/ISSILed/led_scan.c.o
 .group         0x0000000000000000        0x8 CMakeFiles/kiibohd.elf.dir/Scan/ISSILed/led_scan.c.o
 .group         0x0000000000000000        0x8 CMakeFiles/kiibohd.elf.dir/Scan/ISSILed/led_scan.c.o
 .group         0x0000000000000000        0x8 CMakeFiles/kiibohd.elf.dir/Scan/ISSILed/led_scan.c.o
 .group         0x0000000000000000        0x8 CMakeFiles/kiibohd.elf.dir/Scan/ISSILed/led_scan.c.o
 .group         0x0000000000000000        0x8 CMakeFiles/kiibohd.elf.dir/Scan/ISSILed/led_scan.c.o
 .group         0x0000000000000000        0x8 CMakeFiles/kiibohd.elf.dir/Scan/ISSILed/led_scan.c.o
 .group         0x0000000000000000        0x8 CMakeFiles/kiibohd.elf.dir/Scan/ISSILed/led_scan.c.o
 .group         0x0000000000000000        0x8 CMakeFiles/kiibohd.elf.dir/Scan/ISSILed/led_scan.c.o
 .group         0x0000000000000000        0x8 CMakeFiles/kiibohd.elf.dir/Scan/ISSILed/led_scan.c.o
 .group         0x0000000000000000        0x8 CMakeFiles/kiibohd.elf.dir/Scan/ISSILed/led_scan.c.o
 .group         0x0000000000000000        0x8 CMakeFiles/kiibohd.elf.dir/Scan/ISSILed/led_scan.c.o
 .group         0x0000000000000000        0x8 CMakeFiles/kiibohd.elf.dir/Scan/ISSILed/led_scan.c.o
 .group         0x0000000000000000        0x8 CMakeFiles/kiibohd.elf.dir/Scan/ISSILed/led_scan.c.o
 .text          0x0000000000000000        0x0 CMakeFiles/kiibohd.elf.dir/Scan/ISSILed/led_scan.c.o
 .data          0x0000000000000000        0x0 CMakeFiles/kiibohd.elf.dir/Scan/ISSILed/led_scan.c.o
 .bss           0x0000000000000000        0x0 CMakeFiles/kiibohd.elf.dir/Scan/ISSILed/led_scan.c.o
 .debug_macro   0x0000000000000000      0x886 CMakeFiles/kiibohd.elf.dir/Scan/ISSILed/led_scan.c.o
 .debug_macro   0x0000000000000000       0x16 CMakeFiles/kiibohd.elf.dir/Scan/ISSILed/led_scan.c.o
 .debug_macro   0x0000000000000000       0x22 CMakeFiles/kiibohd.elf.dir/Scan/ISSILed/led_scan.c.o
 .debug_macro   0x0000000000000000       0x44 CMakeFiles/kiibohd.elf.dir/Scan/ISSILed/led_scan.c.o
 .debug_macro   0x0000000000000000       0x58 CMakeFiles/kiibohd.elf.dir/Scan/ISSILed/led_scan.c.o
 .debug_macro   0x0000000000000000       0x22 CMakeFiles/kiibohd.elf.dir/Scan/ISSILed/led_scan.c.o
 .debug_macro   0x0000000000000000      0x1df CMakeFiles/kiibohd.elf.dir/Scan/ISSILed/led_scan.c.o
 .debug_macro   0x0000000000000000     0x301e CMakeFiles/kiibohd.elf.dir/Scan/ISSILed/led_scan.c.o
 .debug_macro   0x0000000000000000       0x10 CMakeFiles/kiibohd.elf.dir/Scan/ISSILed/led_scan.c.o
 .debug_macro   0x0000000000000000       0x10 CMakeFiles/kiibohd.elf.dir/Scan/ISSILed/led_scan.c.o
 .debug_macro   0x0000000000000000       0x10 CMakeFiles/kiibohd.elf.dir/Scan/ISSILed/led_scan.c.o
 .debug_macro   0x0000000000000000       0x3a CMakeFiles/kiibohd.elf.dir/Scan/ISSILed/led_scan.c.o
 .debug_macro   0x0000000000000000       0x9a CMakeFiles/kiibohd.elf.dir/Scan/ISSILed/led_scan.c.o
 .group         0x0000000000000000        0x8 CMakeFiles/kiibohd.elf.dir/Scan/MatrixARM/matrix_scan.c.o
 .group         0x0000000000000000        0x8 CMakeFiles/kiibohd.elf.dir/Scan/MatrixARM/matrix_scan.c.o
 .group         0x0000000000000000        0x8 CMakeFiles/kiibohd.elf.dir/Scan/MatrixARM/matrix_scan.c.o
 .group         0x0000000000000000        0x8 CMakeFiles/kiibohd.elf.dir/Scan/MatrixARM/matrix_scan.c.o
 .group         0x0000000000000000        0x8 CMakeFiles/kiibohd.elf.dir/Scan/MatrixARM/matrix_scan.c.o
 .group         0x0000000000000000        0x8 CMakeFiles/kiibohd.elf.dir/Scan/MatrixARM/matrix_scan.c.o
 .group         0x0000000000000000        0x8 CMakeFiles/kiibohd.elf.dir/Scan/MatrixARM/matrix_scan.c.o
 .group         0x0000000000000000        0x8 CMakeFiles/kiibohd.elf.dir/Scan/MatrixARM/matrix_scan.c.o
 .group         0x0000000000000000        0x8 CMakeFiles/kiibohd.elf.dir/Scan/MatrixARM/matrix_scan.c.o
 .group         0x0000000000000000        0x8 CMakeFiles/kiibohd.elf.dir/Scan/MatrixARM/matrix_scan.c.o
 .group         0x0000000000000000        0x8 CMakeFiles/kiibohd.elf.dir/Scan/MatrixARM/matrix_scan.c.o
 .group         0x0000000000000000        0x8 CMakeFiles/kiibohd.elf.dir/Scan/MatrixARM/matrix_scan.c.o
 .group         0x0000000000000000        0x8 CMakeFiles/kiibohd.elf.dir/Scan/MatrixARM/matrix_scan.c.o
 .group         0x0000000000000000        0x8 CMakeFiles/kiibohd.elf.dir/Scan/MatrixARM/matrix_scan.c.o
 .group         0x0000000000000000        0x8 CMakeFiles/kiibohd.elf.dir/Scan/MatrixARM/matrix_scan.c.o
 .group         0x0000000000000000        0x8 CMakeFiles/kiibohd.elf.dir/Scan/MatrixARM/matrix_scan.c.o
 .text          0x0000000000000000        0x0 CMakeFiles/kiibohd.elf.dir/Scan/MatrixARM/matrix_scan.c.o
 .data          0x0000000000000000        0x0 CMakeFiles/kiibohd.elf.dir/Scan/MatrixARM/matrix_scan.c.o
 .bss           0x0000000000000000        0x0 CMakeFiles/kiibohd.elf.dir/Scan/MatrixARM/matrix_scan.c.o
 .debug_macro   0x0000000000000000      0x886 CMakeFiles/kiibohd.elf.dir/Scan/MatrixARM/matrix_scan.c.o
 .debug_macro   0x0000000000000000       0x16 CMakeFiles/kiibohd.elf.dir/Scan/MatrixARM/matrix_scan.c.o
 .debug_macro   0x0000000000000000       0x22 CMakeFiles/kiibohd.elf.dir/Scan/MatrixARM/matrix_scan.c.o
 .debug_macro   0x0000000000000000       0x44 CMakeFiles/kiibohd.elf.dir/Scan/MatrixARM/matrix_scan.c.o
 .debug_macro   0x0000000000000000       0x58 CMakeFiles/kiibohd.elf.dir/Scan/MatrixARM/matrix_scan.c.o
 .debug_macro   0x0000000000000000       0x22 CMakeFiles/kiibohd.elf.dir/Scan/MatrixARM/matrix_scan.c.o
 .debug_macro   0x0000000000000000      0x1df CMakeFiles/kiibohd.elf.dir/Scan/MatrixARM/matrix_scan.c.o
 .debug_macro   0x0000000000000000     0x301e CMakeFiles/kiibohd.elf.dir/Scan/MatrixARM/matrix_scan.c.o
 .debug_macro   0x0000000000000000       0x10 CMakeFiles/kiibohd.elf.dir/Scan/MatrixARM/matrix_scan.c.o
 .debug_macro   0x0000000000000000       0x10 CMakeFiles/kiibohd.elf.dir/Scan/MatrixARM/matrix_scan.c.o
 .debug_macro   0x0000000000000000       0x76 CMakeFiles/kiibohd.elf.dir/Scan/MatrixARM/matrix_scan.c.o
 .debug_macro   0x0000000000000000       0x10 CMakeFiles/kiibohd.elf.dir/Scan/MatrixARM/matrix_scan.c.o
 .debug_macro   0x0000000000000000       0x3a CMakeFiles/kiibohd.elf.dir/Scan/MatrixARM/matrix_scan.c.o
 .debug_macro   0x0000000000000000      0x145 CMakeFiles/kiibohd.elf.dir/Scan/MatrixARM/matrix_scan.c.o
 .debug_macro   0x0000000000000000       0x9a CMakeFiles/kiibohd.elf.dir/Scan/MatrixARM/matrix_scan.c.o
 .group         0x0000000000000000        0x8 CMakeFiles/kiibohd.elf.dir/Scan/STLcd/lcd_scan.c.o
 .group         0x0000000000000000        0x8 CMakeFiles/kiibohd.elf.dir/Scan/STLcd/lcd_scan.c.o
 .group         0x0000000000000000        0x8 CMakeFiles/kiibohd.elf.dir/Scan/STLcd/lcd_scan.c.o
 .group         0x0000000000000000        0x8 CMakeFiles/kiibohd.elf.dir/Scan/STLcd/lcd_scan.c.o
 .group         0x0000000000000000        0x8 CMakeFiles/kiibohd.elf.dir/Scan/STLcd/lcd_scan.c.o
 .group         0x0000000000000000        0x8 CMakeFiles/kiibohd.elf.dir/Scan/STLcd/lcd_scan.c.o
 .group         0x0000000000000000        0x8 CMakeFiles/kiibohd.elf.dir/Scan/STLcd/lcd_scan.c.o
 .group         0x0000000000000000        0x8 CMakeFiles/kiibohd.elf.dir/Scan/STLcd/lcd_scan.c.o
 .group         0x0000000000000000        0x8 CMakeFiles/kiibohd.elf.dir/Scan/STLcd/lcd_scan.c.o
 .group         0x0000000000000000        0x8 CMakeFiles/kiibohd.elf.dir/Scan/STLcd/lcd_scan.c.o
 .group         0x0000000000000000        0x8 CMakeFiles/kiibohd.elf.dir/Scan/STLcd/lcd_scan.c.o
 .group         0x0000000000000000        0x8 CMakeFiles/kiibohd.elf.dir/Scan/STLcd/lcd_scan.c.o
 .group         0x0000000000000000        0x8 CMakeFiles/kiibohd.elf.dir/Scan/STLcd/lcd_scan.c.o
 .group         0x0000000000000000        0x8 CMakeFiles/kiibohd.elf.dir/Scan/STLcd/lcd_scan.c.o
 .group         0x0000000000000000        0x8 CMakeFiles/kiibohd.elf.dir/Scan/STLcd/lcd_scan.c.o
 .group         0x0000000000000000        0x8 CMakeFiles/kiibohd.elf.dir/Scan/STLcd/lcd_scan.c.o
 .group         0x0000000000000000        0x8 CMakeFiles/kiibohd.elf.dir/Scan/STLcd/lcd_scan.c.o
 .text          0x0000000000000000        0x0 CMakeFiles/kiibohd.elf.dir/Scan/STLcd/lcd_scan.c.o
 .data          0x0000000000000000        0x0 CMakeFiles/kiibohd.elf.dir/Scan/STLcd/lcd_scan.c.o
 .bss           0x0000000000000000        0x0 CMakeFiles/kiibohd.elf.dir/Scan/STLcd/lcd_scan.c.o
 .bss.LCD_layerStackExact_size
                0x0000000000000000        0x1 CMakeFiles/kiibohd.elf.dir/Scan/STLcd/lcd_scan.c.o
 .bss.cliNormalReverseToggleState
                0x0000000000000000        0x1 CMakeFiles/kiibohd.elf.dir/Scan/STLcd/lcd_scan.c.o
 .bss.cliFullToggleState
                0x0000000000000000        0x1 CMakeFiles/kiibohd.elf.dir/Scan/STLcd/lcd_scan.c.o
 .debug_macro   0x0000000000000000      0x886 CMakeFiles/kiibohd.elf.dir/Scan/STLcd/lcd_scan.c.o
 .debug_macro   0x0000000000000000       0x16 CMakeFiles/kiibohd.elf.dir/Scan/STLcd/lcd_scan.c.o
 .debug_macro   0x0000000000000000       0x22 CMakeFiles/kiibohd.elf.dir/Scan/STLcd/lcd_scan.c.o
 .debug_macro   0x0000000000000000       0x44 CMakeFiles/kiibohd.elf.dir/Scan/STLcd/lcd_scan.c.o
 .debug_macro   0x0000000000000000       0x58 CMakeFiles/kiibohd.elf.dir/Scan/STLcd/lcd_scan.c.o
 .debug_macro   0x0000000000000000       0x22 CMakeFiles/kiibohd.elf.dir/Scan/STLcd/lcd_scan.c.o
 .debug_macro   0x0000000000000000      0x1df CMakeFiles/kiibohd.elf.dir/Scan/STLcd/lcd_scan.c.o
 .debug_macro   0x0000000000000000     0x301e CMakeFiles/kiibohd.elf.dir/Scan/STLcd/lcd_scan.c.o
 .debug_macro   0x0000000000000000       0x10 CMakeFiles/kiibohd.elf.dir/Scan/STLcd/lcd_scan.c.o
 .debug_macro   0x0000000000000000       0x10 CMakeFiles/kiibohd.elf.dir/Scan/STLcd/lcd_scan.c.o
 .debug_macro   0x0000000000000000       0x76 CMakeFiles/kiibohd.elf.dir/Scan/STLcd/lcd_scan.c.o
 .debug_macro   0x0000000000000000       0x10 CMakeFiles/kiibohd.elf.dir/Scan/STLcd/lcd_scan.c.o
 .debug_macro   0x0000000000000000       0x3a CMakeFiles/kiibohd.elf.dir/Scan/STLcd/lcd_scan.c.o
 .debug_macro   0x0000000000000000      0x145 CMakeFiles/kiibohd.elf.dir/Scan/STLcd/lcd_scan.c.o
 .debug_macro   0x0000000000000000       0x9a CMakeFiles/kiibohd.elf.dir/Scan/STLcd/lcd_scan.c.o
 .debug_macro   0x0000000000000000     0x1217 CMakeFiles/kiibohd.elf.dir/Scan/STLcd/lcd_scan.c.o
 .debug_macro   0x0000000000000000       0x57 CMakeFiles/kiibohd.elf.dir/Scan/STLcd/lcd_scan.c.o
 COMMON         0x0000000000000000        0x8 CMakeFiles/kiibohd.elf.dir/Scan/STLcd/lcd_scan.c.o
 .group         0x0000000000000000        0x8 CMakeFiles/kiibohd.elf.dir/Scan/UARTConnect/connect_scan.c.o
 .group         0x0000000000000000        0x8 CMakeFiles/kiibohd.elf.dir/Scan/UARTConnect/connect_scan.c.o
 .group         0x0000000000000000        0x8 CMakeFiles/kiibohd.elf.dir/Scan/UARTConnect/connect_scan.c.o
 .group         0x0000000000000000        0x8 CMakeFiles/kiibohd.elf.dir/Scan/UARTConnect/connect_scan.c.o
 .group         0x0000000000000000        0x8 CMakeFiles/kiibohd.elf.dir/Scan/UARTConnect/connect_scan.c.o
 .group         0x0000000000000000        0x8 CMakeFiles/kiibohd.elf.dir/Scan/UARTConnect/connect_scan.c.o
 .group         0x0000000000000000        0x8 CMakeFiles/kiibohd.elf.dir/Scan/UARTConnect/connect_scan.c.o
 .group         0x0000000000000000        0x8 CMakeFiles/kiibohd.elf.dir/Scan/UARTConnect/connect_scan.c.o
 .group         0x0000000000000000        0x8 CMakeFiles/kiibohd.elf.dir/Scan/UARTConnect/connect_scan.c.o
 .group         0x0000000000000000        0x8 CMakeFiles/kiibohd.elf.dir/Scan/UARTConnect/connect_scan.c.o
 .group         0x0000000000000000        0x8 CMakeFiles/kiibohd.elf.dir/Scan/UARTConnect/connect_scan.c.o
 .group         0x0000000000000000        0x8 CMakeFiles/kiibohd.elf.dir/Scan/UARTConnect/connect_scan.c.o
 .group         0x0000000000000000        0x8 CMakeFiles/kiibohd.elf.dir/Scan/UARTConnect/connect_scan.c.o
 .group         0x0000000000000000        0x8 CMakeFiles/kiibohd.elf.dir/Scan/UARTConnect/connect_scan.c.o
 .group         0x0000000000000000        0x8 CMakeFiles/kiibohd.elf.dir/Scan/UARTConnect/connect_scan.c.o
 .group         0x0000000000000000        0x8 CMakeFiles/kiibohd.elf.dir/Scan/UARTConnect/connect_scan.c.o
 .group         0x0000000000000000        0x8 CMakeFiles/kiibohd.elf.dir/Scan/UARTConnect/connect_scan.c.o
 .text          0x0000000000000000        0x0 CMakeFiles/kiibohd.elf.dir/Scan/UARTConnect/connect_scan.c.o
 .data          0x0000000000000000        0x0 CMakeFiles/kiibohd.elf.dir/Scan/UARTConnect/connect_scan.c.o
 .bss           0x0000000000000000        0x0 CMakeFiles/kiibohd.elf.dir/Scan/UARTConnect/connect_scan.c.o
 .text.Connect_send_Animation
                0x0000000000000000       0x58 CMakeFiles/kiibohd.elf.dir/Scan/UARTConnect/connect_scan.c.o
 .debug_macro   0x0000000000000000      0x886 CMakeFiles/kiibohd.elf.dir/Scan/UARTConnect/connect_scan.c.o
 .debug_macro   0x0000000000000000       0x16 CMakeFiles/kiibohd.elf.dir/Scan/UARTConnect/connect_scan.c.o
 .debug_macro   0x0000000000000000       0x22 CMakeFiles/kiibohd.elf.dir/Scan/UARTConnect/connect_scan.c.o
 .debug_macro   0x0000000000000000       0x44 CMakeFiles/kiibohd.elf.dir/Scan/UARTConnect/connect_scan.c.o
 .debug_macro   0x0000000000000000       0x58 CMakeFiles/kiibohd.elf.dir/Scan/UARTConnect/connect_scan.c.o
 .debug_macro   0x0000000000000000       0x22 CMakeFiles/kiibohd.elf.dir/Scan/UARTConnect/connect_scan.c.o
 .debug_macro   0x0000000000000000      0x1df CMakeFiles/kiibohd.elf.dir/Scan/UARTConnect/connect_scan.c.o
 .debug_macro   0x0000000000000000     0x301e CMakeFiles/kiibohd.elf.dir/Scan/UARTConnect/connect_scan.c.o
 .debug_macro   0x0000000000000000       0x10 CMakeFiles/kiibohd.elf.dir/Scan/UARTConnect/connect_scan.c.o
 .debug_macro   0x0000000000000000       0x10 CMakeFiles/kiibohd.elf.dir/Scan/UARTConnect/connect_scan.c.o
 .debug_macro   0x0000000000000000       0x76 CMakeFiles/kiibohd.elf.dir/Scan/UARTConnect/connect_scan.c.o
 .debug_macro   0x0000000000000000       0x10 CMakeFiles/kiibohd.elf.dir/Scan/UARTConnect/connect_scan.c.o
 .debug_macro   0x0000000000000000       0x3a CMakeFiles/kiibohd.elf.dir/Scan/UARTConnect/connect_scan.c.o
 .debug_macro   0x0000000000000000      0x145 CMakeFiles/kiibohd.elf.dir/Scan/UARTConnect/connect_scan.c.o
 .debug_macro   0x0000000000000000       0x9a CMakeFiles/kiibohd.elf.dir/Scan/UARTConnect/connect_scan.c.o
 .debug_macro   0x0000000000000000     0x1217 CMakeFiles/kiibohd.elf.dir/Scan/UARTConnect/connect_scan.c.o
 .debug_macro   0x0000000000000000       0x57 CMakeFiles/kiibohd.elf.dir/Scan/UARTConnect/connect_scan.c.o
 .group         0x0000000000000000        0x8 CMakeFiles/kiibohd.elf.dir/Scan/MDErgo1-CustomLogo/scan_loop.c.o
 .group         0x0000000000000000        0x8 CMakeFiles/kiibohd.elf.dir/Scan/MDErgo1-CustomLogo/scan_loop.c.o
 .group         0x0000000000000000        0x8 CMakeFiles/kiibohd.elf.dir/Scan/MDErgo1-CustomLogo/scan_loop.c.o
 .group         0x0000000000000000        0x8 CMakeFiles/kiibohd.elf.dir/Scan/MDErgo1-CustomLogo/scan_loop.c.o
 .group         0x0000000000000000        0x8 CMakeFiles/kiibohd.elf.dir/Scan/MDErgo1-CustomLogo/scan_loop.c.o
 .group         0x0000000000000000        0x8 CMakeFiles/kiibohd.elf.dir/Scan/MDErgo1-CustomLogo/scan_loop.c.o
 .group         0x0000000000000000        0x8 CMakeFiles/kiibohd.elf.dir/Scan/MDErgo1-CustomLogo/scan_loop.c.o
 .group         0x0000000000000000        0x8 CMakeFiles/kiibohd.elf.dir/Scan/MDErgo1-CustomLogo/scan_loop.c.o
 .group         0x0000000000000000        0x8 CMakeFiles/kiibohd.elf.dir/Scan/MDErgo1-CustomLogo/scan_loop.c.o
 .group         0x0000000000000000        0x8 CMakeFiles/kiibohd.elf.dir/Scan/MDErgo1-CustomLogo/scan_loop.c.o
 .group         0x0000000000000000        0x8 CMakeFiles/kiibohd.elf.dir/Scan/MDErgo1-CustomLogo/scan_loop.c.o
 .group         0x0000000000000000        0x8 CMakeFiles/kiibohd.elf.dir/Scan/MDErgo1-CustomLogo/scan_loop.c.o
 .group         0x0000000000000000        0x8 CMakeFiles/kiibohd.elf.dir/Scan/MDErgo1-CustomLogo/scan_loop.c.o
 .group         0x0000000000000000        0x8 CMakeFiles/kiibohd.elf.dir/Scan/MDErgo1-CustomLogo/scan_loop.c.o
 .group         0x0000000000000000        0x8 CMakeFiles/kiibohd.elf.dir/Scan/MDErgo1-CustomLogo/scan_loop.c.o
 .group         0x0000000000000000        0x8 CMakeFiles/kiibohd.elf.dir/Scan/MDErgo1-CustomLogo/scan_loop.c.o
 .group         0x0000000000000000        0x8 CMakeFiles/kiibohd.elf.dir/Scan/MDErgo1-CustomLogo/scan_loop.c.o
 .text          0x0000000000000000        0x0 CMakeFiles/kiibohd.elf.dir/Scan/MDErgo1-CustomLogo/scan_loop.c.o
 .data          0x0000000000000000        0x0 CMakeFiles/kiibohd.elf.dir/Scan/MDErgo1-CustomLogo/scan_loop.c.o
 .bss           0x0000000000000000        0x0 CMakeFiles/kiibohd.elf.dir/Scan/MDErgo1-CustomLogo/scan_loop.c.o
 .debug_macro   0x0000000000000000      0x886 CMakeFiles/kiibohd.elf.dir/Scan/MDErgo1-CustomLogo/scan_loop.c.o
 .debug_macro   0x0000000000000000       0x16 CMakeFiles/kiibohd.elf.dir/Scan/MDErgo1-CustomLogo/scan_loop.c.o
 .debug_macro   0x0000000000000000       0x22 CMakeFiles/kiibohd.elf.dir/Scan/MDErgo1-CustomLogo/scan_loop.c.o
 .debug_macro   0x0000000000000000       0x44 CMakeFiles/kiibohd.elf.dir/Scan/MDErgo1-CustomLogo/scan_loop.c.o
 .debug_macro   0x0000000000000000       0x58 CMakeFiles/kiibohd.elf.dir/Scan/MDErgo1-CustomLogo/scan_loop.c.o
 .debug_macro   0x0000000000000000       0x22 CMakeFiles/kiibohd.elf.dir/Scan/MDErgo1-CustomLogo/scan_loop.c.o
 .debug_macro   0x0000000000000000      0x1df CMakeFiles/kiibohd.elf.dir/Scan/MDErgo1-CustomLogo/scan_loop.c.o
 .debug_macro   0x0000000000000000     0x301e CMakeFiles/kiibohd.elf.dir/Scan/MDErgo1-CustomLogo/scan_loop.c.o
 .debug_macro   0x0000000000000000       0x10 CMakeFiles/kiibohd.elf.dir/Scan/MDErgo1-CustomLogo/scan_loop.c.o
 .debug_macro   0x0000000000000000       0x10 CMakeFiles/kiibohd.elf.dir/Scan/MDErgo1-CustomLogo/scan_loop.c.o
 .debug_macro   0x0000000000000000       0x76 CMakeFiles/kiibohd.elf.dir/Scan/MDErgo1-CustomLogo/scan_loop.c.o
 .debug_macro   0x0000000000000000       0x10 CMakeFiles/kiibohd.elf.dir/Scan/MDErgo1-CustomLogo/scan_loop.c.o
 .debug_macro   0x0000000000000000       0x3a CMakeFiles/kiibohd.elf.dir/Scan/MDErgo1-CustomLogo/scan_loop.c.o
 .debug_macro   0x0000000000000000       0x9a CMakeFiles/kiibohd.elf.dir/Scan/MDErgo1-CustomLogo/scan_loop.c.o
 .debug_macro   0x0000000000000000     0x1217 CMakeFiles/kiibohd.elf.dir/Scan/MDErgo1-CustomLogo/scan_loop.c.o
 .debug_macro   0x0000000000000000       0x57 CMakeFiles/kiibohd.elf.dir/Scan/MDErgo1-CustomLogo/scan_loop.c.o
 .group         0x0000000000000000        0x8 CMakeFiles/kiibohd.elf.dir/Macro/PartialMap/macro.c.o
 .group         0x0000000000000000        0x8 CMakeFiles/kiibohd.elf.dir/Macro/PartialMap/macro.c.o
 .group         0x0000000000000000        0x8 CMakeFiles/kiibohd.elf.dir/Macro/PartialMap/macro.c.o
 .group         0x0000000000000000        0x8 CMakeFiles/kiibohd.elf.dir/Macro/PartialMap/macro.c.o
 .group         0x0000000000000000        0x8 CMakeFiles/kiibohd.elf.dir/Macro/PartialMap/macro.c.o
 .group         0x0000000000000000        0x8 CMakeFiles/kiibohd.elf.dir/Macro/PartialMap/macro.c.o
 .group         0x0000000000000000        0x8 CMakeFiles/kiibohd.elf.dir/Macro/PartialMap/macro.c.o
 .group         0x0000000000000000        0x8 CMakeFiles/kiibohd.elf.dir/Macro/PartialMap/macro.c.o
 .group         0x0000000000000000        0x8 CMakeFiles/kiibohd.elf.dir/Macro/PartialMap/macro.c.o
 .group         0x0000000000000000        0x8 CMakeFiles/kiibohd.elf.dir/Macro/PartialMap/macro.c.o
 .group         0x0000000000000000        0x8 CMakeFiles/kiibohd.elf.dir/Macro/PartialMap/macro.c.o
 .group         0x0000000000000000        0x8 CMakeFiles/kiibohd.elf.dir/Macro/PartialMap/macro.c.o
 .group         0x0000000000000000        0x8 CMakeFiles/kiibohd.elf.dir/Macro/PartialMap/macro.c.o
 .group         0x0000000000000000        0x8 CMakeFiles/kiibohd.elf.dir/Macro/PartialMap/macro.c.o
 .group         0x0000000000000000        0x8 CMakeFiles/kiibohd.elf.dir/Macro/PartialMap/macro.c.o
 .group         0x0000000000000000        0x8 CMakeFiles/kiibohd.elf.dir/Macro/PartialMap/macro.c.o
 .group         0x0000000000000000        0x8 CMakeFiles/kiibohd.elf.dir/Macro/PartialMap/macro.c.o
 .text          0x0000000000000000        0x0 CMakeFiles/kiibohd.elf.dir/Macro/PartialMap/macro.c.o
 .data          0x0000000000000000        0x0 CMakeFiles/kiibohd.elf.dir/Macro/PartialMap/macro.c.o
 .bss           0x0000000000000000        0x0 CMakeFiles/kiibohd.elf.dir/Macro/PartialMap/macro.c.o
 .text.Macro_analogState
                0x0000000000000000       0x4c CMakeFiles/kiibohd.elf.dir/Macro/PartialMap/macro.c.o
 .text.Macro_ledState
                0x0000000000000000       0x28 CMakeFiles/kiibohd.elf.dir/Macro/PartialMap/macro.c.o
 .debug_macro   0x0000000000000000      0x886 CMakeFiles/kiibohd.elf.dir/Macro/PartialMap/macro.c.o
 .debug_macro   0x0000000000000000       0x16 CMakeFiles/kiibohd.elf.dir/Macro/PartialMap/macro.c.o
 .debug_macro   0x0000000000000000       0x22 CMakeFiles/kiibohd.elf.dir/Macro/PartialMap/macro.c.o
 .debug_macro   0x0000000000000000       0x44 CMakeFiles/kiibohd.elf.dir/Macro/PartialMap/macro.c.o
 .debug_macro   0x0000000000000000       0x58 CMakeFiles/kiibohd.elf.dir/Macro/PartialMap/macro.c.o
 .debug_macro   0x0000000000000000       0x22 CMakeFiles/kiibohd.elf.dir/Macro/PartialMap/macro.c.o
 .debug_macro   0x0000000000000000      0x1df CMakeFiles/kiibohd.elf.dir/Macro/PartialMap/macro.c.o
 .debug_macro   0x0000000000000000     0x301e CMakeFiles/kiibohd.elf.dir/Macro/PartialMap/macro.c.o
 .debug_macro   0x0000000000000000       0x10 CMakeFiles/kiibohd.elf.dir/Macro/PartialMap/macro.c.o
 .debug_macro   0x0000000000000000       0x10 CMakeFiles/kiibohd.elf.dir/Macro/PartialMap/macro.c.o
 .debug_macro   0x0000000000000000       0x76 CMakeFiles/kiibohd.elf.dir/Macro/PartialMap/macro.c.o
 .debug_macro   0x0000000000000000       0x10 CMakeFiles/kiibohd.elf.dir/Macro/PartialMap/macro.c.o
 .debug_macro   0x0000000000000000       0x3a CMakeFiles/kiibohd.elf.dir/Macro/PartialMap/macro.c.o
 .debug_macro   0x0000000000000000       0x9a CMakeFiles/kiibohd.elf.dir/Macro/PartialMap/macro.c.o
 .debug_macro   0x0000000000000000     0x1217 CMakeFiles/kiibohd.elf.dir/Macro/PartialMap/macro.c.o
 .debug_macro   0x0000000000000000      0x145 CMakeFiles/kiibohd.elf.dir/Macro/PartialMap/macro.c.o
 .debug_macro   0x0000000000000000       0x57 CMakeFiles/kiibohd.elf.dir/Macro/PartialMap/macro.c.o
 .group         0x0000000000000000        0x8 CMakeFiles/kiibohd.elf.dir/Macro/PartialMap/result.c.o
 .group         0x0000000000000000        0x8 CMakeFiles/kiibohd.elf.dir/Macro/PartialMap/result.c.o
 .group         0x0000000000000000        0x8 CMakeFiles/kiibohd.elf.dir/Macro/PartialMap/result.c.o
 .group         0x0000000000000000        0x8 CMakeFiles/kiibohd.elf.dir/Macro/PartialMap/result.c.o
 .group         0x0000000000000000        0x8 CMakeFiles/kiibohd.elf.dir/Macro/PartialMap/result.c.o
 .group         0x0000000000000000        0x8 CMakeFiles/kiibohd.elf.dir/Macro/PartialMap/result.c.o
 .group         0x0000000000000000        0x8 CMakeFiles/kiibohd.elf.dir/Macro/PartialMap/result.c.o
 .group         0x0000000000000000        0x8 CMakeFiles/kiibohd.elf.dir/Macro/PartialMap/result.c.o
 .group         0x0000000000000000        0x8 CMakeFiles/kiibohd.elf.dir/Macro/PartialMap/result.c.o
 .group         0x0000000000000000        0x8 CMakeFiles/kiibohd.elf.dir/Macro/PartialMap/result.c.o
 .group         0x0000000000000000        0x8 CMakeFiles/kiibohd.elf.dir/Macro/PartialMap/result.c.o
 .group         0x0000000000000000        0x8 CMakeFiles/kiibohd.elf.dir/Macro/PartialMap/result.c.o
 .group         0x0000000000000000        0x8 CMakeFiles/kiibohd.elf.dir/Macro/PartialMap/result.c.o
 .group         0x0000000000000000        0x8 CMakeFiles/kiibohd.elf.dir/Macro/PartialMap/result.c.o
 .group         0x0000000000000000        0x8 CMakeFiles/kiibohd.elf.dir/Macro/PartialMap/result.c.o
 .group         0x0000000000000000        0x8 CMakeFiles/kiibohd.elf.dir/Macro/PartialMap/result.c.o
 .text          0x0000000000000000        0x0 CMakeFiles/kiibohd.elf.dir/Macro/PartialMap/result.c.o
 .data          0x0000000000000000        0x0 CMakeFiles/kiibohd.elf.dir/Macro/PartialMap/result.c.o
 .bss           0x0000000000000000        0x0 CMakeFiles/kiibohd.elf.dir/Macro/PartialMap/result.c.o
 .text.Result_add
                0x0000000000000000        0x2 CMakeFiles/kiibohd.elf.dir/Macro/PartialMap/result.c.o
 .debug_macro   0x0000000000000000      0x886 CMakeFiles/kiibohd.elf.dir/Macro/PartialMap/result.c.o
 .debug_macro   0x0000000000000000       0x16 CMakeFiles/kiibohd.elf.dir/Macro/PartialMap/result.c.o
 .debug_macro   0x0000000000000000       0x22 CMakeFiles/kiibohd.elf.dir/Macro/PartialMap/result.c.o
 .debug_macro   0x0000000000000000       0x44 CMakeFiles/kiibohd.elf.dir/Macro/PartialMap/result.c.o
 .debug_macro   0x0000000000000000       0x58 CMakeFiles/kiibohd.elf.dir/Macro/PartialMap/result.c.o
 .debug_macro   0x0000000000000000       0x22 CMakeFiles/kiibohd.elf.dir/Macro/PartialMap/result.c.o
 .debug_macro   0x0000000000000000      0x1df CMakeFiles/kiibohd.elf.dir/Macro/PartialMap/result.c.o
 .debug_macro   0x0000000000000000     0x301e CMakeFiles/kiibohd.elf.dir/Macro/PartialMap/result.c.o
 .debug_macro   0x0000000000000000       0x10 CMakeFiles/kiibohd.elf.dir/Macro/PartialMap/result.c.o
 .debug_macro   0x0000000000000000       0x10 CMakeFiles/kiibohd.elf.dir/Macro/PartialMap/result.c.o
 .debug_macro   0x0000000000000000       0x76 CMakeFiles/kiibohd.elf.dir/Macro/PartialMap/result.c.o
 .debug_macro   0x0000000000000000       0x10 CMakeFiles/kiibohd.elf.dir/Macro/PartialMap/result.c.o
 .debug_macro   0x0000000000000000       0x9a CMakeFiles/kiibohd.elf.dir/Macro/PartialMap/result.c.o
 .debug_macro   0x0000000000000000      0x145 CMakeFiles/kiibohd.elf.dir/Macro/PartialMap/result.c.o
 .debug_macro   0x0000000000000000     0x1217 CMakeFiles/kiibohd.elf.dir/Macro/PartialMap/result.c.o
 .debug_macro   0x0000000000000000       0x57 CMakeFiles/kiibohd.elf.dir/Macro/PartialMap/result.c.o
 .group         0x0000000000000000        0x8 CMakeFiles/kiibohd.elf.dir/Macro/PartialMap/trigger.c.o
 .group         0x0000000000000000        0x8 CMakeFiles/kiibohd.elf.dir/Macro/PartialMap/trigger.c.o
 .group         0x0000000000000000        0x8 CMakeFiles/kiibohd.elf.dir/Macro/PartialMap/trigger.c.o
 .group         0x0000000000000000        0x8 CMakeFiles/kiibohd.elf.dir/Macro/PartialMap/trigger.c.o
 .group         0x0000000000000000        0x8 CMakeFiles/kiibohd.elf.dir/Macro/PartialMap/trigger.c.o
 .group         0x0000000000000000        0x8 CMakeFiles/kiibohd.elf.dir/Macro/PartialMap/trigger.c.o
 .group         0x0000000000000000        0x8 CMakeFiles/kiibohd.elf.dir/Macro/PartialMap/trigger.c.o
 .group         0x0000000000000000        0x8 CMakeFiles/kiibohd.elf.dir/Macro/PartialMap/trigger.c.o
 .group         0x0000000000000000        0x8 CMakeFiles/kiibohd.elf.dir/Macro/PartialMap/trigger.c.o
 .group         0x0000000000000000        0x8 CMakeFiles/kiibohd.elf.dir/Macro/PartialMap/trigger.c.o
 .group         0x0000000000000000        0x8 CMakeFiles/kiibohd.elf.dir/Macro/PartialMap/trigger.c.o
 .group         0x0000000000000000        0x8 CMakeFiles/kiibohd.elf.dir/Macro/PartialMap/trigger.c.o
 .group         0x0000000000000000        0x8 CMakeFiles/kiibohd.elf.dir/Macro/PartialMap/trigger.c.o
 .group         0x0000000000000000        0x8 CMakeFiles/kiibohd.elf.dir/Macro/PartialMap/trigger.c.o
 .group         0x0000000000000000        0x8 CMakeFiles/kiibohd.elf.dir/Macro/PartialMap/trigger.c.o
 .group         0x0000000000000000        0x8 CMakeFiles/kiibohd.elf.dir/Macro/PartialMap/trigger.c.o
 .text          0x0000000000000000        0x0 CMakeFiles/kiibohd.elf.dir/Macro/PartialMap/trigger.c.o
 .data          0x0000000000000000        0x0 CMakeFiles/kiibohd.elf.dir/Macro/PartialMap/trigger.c.o
 .bss           0x0000000000000000        0x0 CMakeFiles/kiibohd.elf.dir/Macro/PartialMap/trigger.c.o
 .text.Trigger_state
                0x0000000000000000        0x2 CMakeFiles/kiibohd.elf.dir/Macro/PartialMap/trigger.c.o
 .text.Trigger_update
                0x0000000000000000        0x4 CMakeFiles/kiibohd.elf.dir/Macro/PartialMap/trigger.c.o
 .debug_macro   0x0000000000000000      0x886 CMakeFiles/kiibohd.elf.dir/Macro/PartialMap/trigger.c.o
 .debug_macro   0x0000000000000000       0x16 CMakeFiles/kiibohd.elf.dir/Macro/PartialMap/trigger.c.o
 .debug_macro   0x0000000000000000       0x22 CMakeFiles/kiibohd.elf.dir/Macro/PartialMap/trigger.c.o
 .debug_macro   0x0000000000000000       0x44 CMakeFiles/kiibohd.elf.dir/Macro/PartialMap/trigger.c.o
 .debug_macro   0x0000000000000000       0x58 CMakeFiles/kiibohd.elf.dir/Macro/PartialMap/trigger.c.o
 .debug_macro   0x0000000000000000       0x22 CMakeFiles/kiibohd.elf.dir/Macro/PartialMap/trigger.c.o
 .debug_macro   0x0000000000000000      0x1df CMakeFiles/kiibohd.elf.dir/Macro/PartialMap/trigger.c.o
 .debug_macro   0x0000000000000000     0x301e CMakeFiles/kiibohd.elf.dir/Macro/PartialMap/trigger.c.o
 .debug_macro   0x0000000000000000       0x10 CMakeFiles/kiibohd.elf.dir/Macro/PartialMap/trigger.c.o
 .debug_macro   0x0000000000000000       0x10 CMakeFiles/kiibohd.elf.dir/Macro/PartialMap/trigger.c.o
 .debug_macro   0x0000000000000000       0x76 CMakeFiles/kiibohd.elf.dir/Macro/PartialMap/trigger.c.o
 .debug_macro   0x0000000000000000       0x10 CMakeFiles/kiibohd.elf.dir/Macro/PartialMap/trigger.c.o
 .debug_macro   0x0000000000000000       0x9a CMakeFiles/kiibohd.elf.dir/Macro/PartialMap/trigger.c.o
 .debug_macro   0x0000000000000000      0x145 CMakeFiles/kiibohd.elf.dir/Macro/PartialMap/trigger.c.o
 .debug_macro   0x0000000000000000     0x1217 CMakeFiles/kiibohd.elf.dir/Macro/PartialMap/trigger.c.o
 .debug_macro   0x0000000000000000       0x57 CMakeFiles/kiibohd.elf.dir/Macro/PartialMap/trigger.c.o
 .group         0x0000000000000000        0x8 CMakeFiles/kiibohd.elf.dir/Output/pjrcUSB/output_com.c.o
 .group         0x0000000000000000        0x8 CMakeFiles/kiibohd.elf.dir/Output/pjrcUSB/output_com.c.o
 .group         0x0000000000000000        0x8 CMakeFiles/kiibohd.elf.dir/Output/pjrcUSB/output_com.c.o
 .group         0x0000000000000000        0x8 CMakeFiles/kiibohd.elf.dir/Output/pjrcUSB/output_com.c.o
 .group         0x0000000000000000        0x8 CMakeFiles/kiibohd.elf.dir/Output/pjrcUSB/output_com.c.o
 .group         0x0000000000000000        0x8 CMakeFiles/kiibohd.elf.dir/Output/pjrcUSB/output_com.c.o
 .group         0x0000000000000000        0x8 CMakeFiles/kiibohd.elf.dir/Output/pjrcUSB/output_com.c.o
 .group         0x0000000000000000        0x8 CMakeFiles/kiibohd.elf.dir/Output/pjrcUSB/output_com.c.o
 .group         0x0000000000000000        0x8 CMakeFiles/kiibohd.elf.dir/Output/pjrcUSB/output_com.c.o
 .group         0x0000000000000000        0x8 CMakeFiles/kiibohd.elf.dir/Output/pjrcUSB/output_com.c.o
 .group         0x0000000000000000        0x8 CMakeFiles/kiibohd.elf.dir/Output/pjrcUSB/output_com.c.o
 .group         0x0000000000000000        0x8 CMakeFiles/kiibohd.elf.dir/Output/pjrcUSB/output_com.c.o
 .group         0x0000000000000000        0x8 CMakeFiles/kiibohd.elf.dir/Output/pjrcUSB/output_com.c.o
 .group         0x0000000000000000        0x8 CMakeFiles/kiibohd.elf.dir/Output/pjrcUSB/output_com.c.o
 .group         0x0000000000000000        0x8 CMakeFiles/kiibohd.elf.dir/Output/pjrcUSB/output_com.c.o
 .group         0x0000000000000000        0x8 CMakeFiles/kiibohd.elf.dir/Output/pjrcUSB/output_com.c.o
 .group         0x0000000000000000        0x8 CMakeFiles/kiibohd.elf.dir/Output/pjrcUSB/output_com.c.o
 .group         0x0000000000000000        0x8 CMakeFiles/kiibohd.elf.dir/Output/pjrcUSB/output_com.c.o
 .group         0x0000000000000000        0x8 CMakeFiles/kiibohd.elf.dir/Output/pjrcUSB/output_com.c.o
 .group         0x0000000000000000        0x8 CMakeFiles/kiibohd.elf.dir/Output/pjrcUSB/output_com.c.o
 .group         0x0000000000000000        0x8 CMakeFiles/kiibohd.elf.dir/Output/pjrcUSB/output_com.c.o
 .group         0x0000000000000000        0x8 CMakeFiles/kiibohd.elf.dir/Output/pjrcUSB/output_com.c.o
 .text          0x0000000000000000        0x0 CMakeFiles/kiibohd.elf.dir/Output/pjrcUSB/output_com.c.o
 .data          0x0000000000000000        0x0 CMakeFiles/kiibohd.elf.dir/Output/pjrcUSB/output_com.c.o
 .bss           0x0000000000000000        0x0 CMakeFiles/kiibohd.elf.dir/Output/pjrcUSB/output_com.c.o
 .text.Output_firmwareReload
                0x0000000000000000        0x4 CMakeFiles/kiibohd.elf.dir/Output/pjrcUSB/output_com.c.o
 .text.Output_putchar
                0x0000000000000000        0x4 CMakeFiles/kiibohd.elf.dir/Output/pjrcUSB/output_com.c.o
 .debug_macro   0x0000000000000000      0x886 CMakeFiles/kiibohd.elf.dir/Output/pjrcUSB/output_com.c.o
 .debug_macro   0x0000000000000000       0x16 CMakeFiles/kiibohd.elf.dir/Output/pjrcUSB/output_com.c.o
 .debug_macro   0x0000000000000000       0x22 CMakeFiles/kiibohd.elf.dir/Output/pjrcUSB/output_com.c.o
 .debug_macro   0x0000000000000000       0x44 CMakeFiles/kiibohd.elf.dir/Output/pjrcUSB/output_com.c.o
 .debug_macro   0x0000000000000000       0x58 CMakeFiles/kiibohd.elf.dir/Output/pjrcUSB/output_com.c.o
 .debug_macro   0x0000000000000000       0x22 CMakeFiles/kiibohd.elf.dir/Output/pjrcUSB/output_com.c.o
 .debug_macro   0x0000000000000000      0x1df CMakeFiles/kiibohd.elf.dir/Output/pjrcUSB/output_com.c.o
 .debug_macro   0x0000000000000000     0x301e CMakeFiles/kiibohd.elf.dir/Output/pjrcUSB/output_com.c.o
 .debug_macro   0x0000000000000000       0x10 CMakeFiles/kiibohd.elf.dir/Output/pjrcUSB/output_com.c.o
 .debug_macro   0x0000000000000000       0x10 CMakeFiles/kiibohd.elf.dir/Output/pjrcUSB/output_com.c.o
 .debug_macro   0x0000000000000000       0x76 CMakeFiles/kiibohd.elf.dir/Output/pjrcUSB/output_com.c.o
 .debug_macro   0x0000000000000000       0x10 CMakeFiles/kiibohd.elf.dir/Output/pjrcUSB/output_com.c.o
 .debug_macro   0x0000000000000000       0x3a CMakeFiles/kiibohd.elf.dir/Output/pjrcUSB/output_com.c.o
 .debug_macro   0x0000000000000000       0x9a CMakeFiles/kiibohd.elf.dir/Output/pjrcUSB/output_com.c.o
 .debug_macro   0x0000000000000000      0x145 CMakeFiles/kiibohd.elf.dir/Output/pjrcUSB/output_com.c.o
 .group         0x0000000000000000        0x8 CMakeFiles/kiibohd.elf.dir/Output/pjrcUSB/arm/usb_desc.c.o
 .group         0x0000000000000000        0x8 CMakeFiles/kiibohd.elf.dir/Output/pjrcUSB/arm/usb_desc.c.o
 .group         0x0000000000000000        0x8 CMakeFiles/kiibohd.elf.dir/Output/pjrcUSB/arm/usb_desc.c.o
 .group         0x0000000000000000        0x8 CMakeFiles/kiibohd.elf.dir/Output/pjrcUSB/arm/usb_desc.c.o
 .group         0x0000000000000000        0x8 CMakeFiles/kiibohd.elf.dir/Output/pjrcUSB/arm/usb_desc.c.o
 .group         0x0000000000000000        0x8 CMakeFiles/kiibohd.elf.dir/Output/pjrcUSB/arm/usb_desc.c.o
 .group         0x0000000000000000        0x8 CMakeFiles/kiibohd.elf.dir/Output/pjrcUSB/arm/usb_desc.c.o
 .group         0x0000000000000000        0x8 CMakeFiles/kiibohd.elf.dir/Output/pjrcUSB/arm/usb_desc.c.o
 .group         0x0000000000000000        0x8 CMakeFiles/kiibohd.elf.dir/Output/pjrcUSB/arm/usb_desc.c.o
 .group         0x0000000000000000        0x8 CMakeFiles/kiibohd.elf.dir/Output/pjrcUSB/arm/usb_desc.c.o
 .group         0x0000000000000000        0x8 CMakeFiles/kiibohd.elf.dir/Output/pjrcUSB/arm/usb_desc.c.o
 .text          0x0000000000000000        0x0 CMakeFiles/kiibohd.elf.dir/Output/pjrcUSB/arm/usb_desc.c.o
 .data          0x0000000000000000        0x0 CMakeFiles/kiibohd.elf.dir/Output/pjrcUSB/arm/usb_desc.c.o
 .bss           0x0000000000000000        0x0 CMakeFiles/kiibohd.elf.dir/Output/pjrcUSB/arm/usb_desc.c.o
 .debug_macro   0x0000000000000000      0x886 CMakeFiles/kiibohd.elf.dir/Output/pjrcUSB/arm/usb_desc.c.o
 .debug_macro   0x0000000000000000       0x22 CMakeFiles/kiibohd.elf.dir/Output/pjrcUSB/arm/usb_desc.c.o
 .debug_macro   0x0000000000000000       0x44 CMakeFiles/kiibohd.elf.dir/Output/pjrcUSB/arm/usb_desc.c.o
 .debug_macro   0x0000000000000000       0x58 CMakeFiles/kiibohd.elf.dir/Output/pjrcUSB/arm/usb_desc.c.o
 .debug_macro   0x0000000000000000       0x22 CMakeFiles/kiibohd.elf.dir/Output/pjrcUSB/arm/usb_desc.c.o
 .debug_macro   0x0000000000000000      0x1df CMakeFiles/kiibohd.elf.dir/Output/pjrcUSB/arm/usb_desc.c.o
 .debug_macro   0x0000000000000000      0x16d CMakeFiles/kiibohd.elf.dir/Output/pjrcUSB/arm/usb_desc.c.o
 .debug_macro   0x0000000000000000       0x76 CMakeFiles/kiibohd.elf.dir/Output/pjrcUSB/arm/usb_desc.c.o
 .debug_macro   0x0000000000000000       0x10 CMakeFiles/kiibohd.elf.dir/Output/pjrcUSB/arm/usb_desc.c.o
 .debug_macro   0x0000000000000000      0x178 CMakeFiles/kiibohd.elf.dir/Output/pjrcUSB/arm/usb_desc.c.o
 .debug_macro   0x0000000000000000      0x145 CMakeFiles/kiibohd.elf.dir/Output/pjrcUSB/arm/usb_desc.c.o
 .group         0x0000000000000000        0x8 CMakeFiles/kiibohd.elf.dir/Output/pjrcUSB/arm/usb_dev.c.o
 .group         0x0000000000000000        0x8 CMakeFiles/kiibohd.elf.dir/Output/pjrcUSB/arm/usb_dev.c.o
 .group         0x0000000000000000        0x8 CMakeFiles/kiibohd.elf.dir/Output/pjrcUSB/arm/usb_dev.c.o
 .group         0x0000000000000000        0x8 CMakeFiles/kiibohd.elf.dir/Output/pjrcUSB/arm/usb_dev.c.o
 .group         0x0000000000000000        0x8 CMakeFiles/kiibohd.elf.dir/Output/pjrcUSB/arm/usb_dev.c.o
 .group         0x0000000000000000        0x8 CMakeFiles/kiibohd.elf.dir/Output/pjrcUSB/arm/usb_dev.c.o
 .group         0x0000000000000000        0x8 CMakeFiles/kiibohd.elf.dir/Output/pjrcUSB/arm/usb_dev.c.o
 .group         0x0000000000000000        0x8 CMakeFiles/kiibohd.elf.dir/Output/pjrcUSB/arm/usb_dev.c.o
 .group         0x0000000000000000        0x8 CMakeFiles/kiibohd.elf.dir/Output/pjrcUSB/arm/usb_dev.c.o
 .group         0x0000000000000000        0x8 CMakeFiles/kiibohd.elf.dir/Output/pjrcUSB/arm/usb_dev.c.o
 .group         0x0000000000000000        0x8 CMakeFiles/kiibohd.elf.dir/Output/pjrcUSB/arm/usb_dev.c.o
 .group         0x0000000000000000        0x8 CMakeFiles/kiibohd.elf.dir/Output/pjrcUSB/arm/usb_dev.c.o
 .group         0x0000000000000000        0x8 CMakeFiles/kiibohd.elf.dir/Output/pjrcUSB/arm/usb_dev.c.o
 .group         0x0000000000000000        0x8 CMakeFiles/kiibohd.elf.dir/Output/pjrcUSB/arm/usb_dev.c.o
 .group         0x0000000000000000        0x8 CMakeFiles/kiibohd.elf.dir/Output/pjrcUSB/arm/usb_dev.c.o
 .text          0x0000000000000000        0x0 CMakeFiles/kiibohd.elf.dir/Output/pjrcUSB/arm/usb_dev.c.o
 .data          0x0000000000000000        0x0 CMakeFiles/kiibohd.elf.dir/Output/pjrcUSB/arm/usb_dev.c.o
 .bss           0x0000000000000000        0x0 CMakeFiles/kiibohd.elf.dir/Output/pjrcUSB/arm/usb_dev.c.o
 .text.usb_tx_byte_count
                0x0000000000000000       0x28 CMakeFiles/kiibohd.elf.dir/Output/pjrcUSB/arm/usb_dev.c.o
 .text.usb_configured
                0x0000000000000000        0xc CMakeFiles/kiibohd.elf.dir/Output/pjrcUSB/arm/usb_dev.c.o
 .debug_macro   0x0000000000000000      0x886 CMakeFiles/kiibohd.elf.dir/Output/pjrcUSB/arm/usb_dev.c.o
 .debug_macro   0x0000000000000000       0x16 CMakeFiles/kiibohd.elf.dir/Output/pjrcUSB/arm/usb_dev.c.o
 .debug_macro   0x0000000000000000       0x22 CMakeFiles/kiibohd.elf.dir/Output/pjrcUSB/arm/usb_dev.c.o
 .debug_macro   0x0000000000000000       0x44 CMakeFiles/kiibohd.elf.dir/Output/pjrcUSB/arm/usb_dev.c.o
 .debug_macro   0x0000000000000000       0x58 CMakeFiles/kiibohd.elf.dir/Output/pjrcUSB/arm/usb_dev.c.o
 .debug_macro   0x0000000000000000       0x22 CMakeFiles/kiibohd.elf.dir/Output/pjrcUSB/arm/usb_dev.c.o
 .debug_macro   0x0000000000000000      0x1df CMakeFiles/kiibohd.elf.dir/Output/pjrcUSB/arm/usb_dev.c.o
 .debug_macro   0x0000000000000000     0x301e CMakeFiles/kiibohd.elf.dir/Output/pjrcUSB/arm/usb_dev.c.o
 .debug_macro   0x0000000000000000       0x10 CMakeFiles/kiibohd.elf.dir/Output/pjrcUSB/arm/usb_dev.c.o
 .debug_macro   0x0000000000000000       0x76 CMakeFiles/kiibohd.elf.dir/Output/pjrcUSB/arm/usb_dev.c.o
 .debug_macro   0x0000000000000000       0x10 CMakeFiles/kiibohd.elf.dir/Output/pjrcUSB/arm/usb_dev.c.o
 .debug_macro   0x0000000000000000       0x9a CMakeFiles/kiibohd.elf.dir/Output/pjrcUSB/arm/usb_dev.c.o
 .debug_macro   0x0000000000000000      0x145 CMakeFiles/kiibohd.elf.dir/Output/pjrcUSB/arm/usb_dev.c.o
 .debug_macro   0x0000000000000000      0x16d CMakeFiles/kiibohd.elf.dir/Output/pjrcUSB/arm/usb_dev.c.o
 .debug_macro   0x0000000000000000      0x178 CMakeFiles/kiibohd.elf.dir/Output/pjrcUSB/arm/usb_dev.c.o
 .group         0x0000000000000000        0x8 CMakeFiles/kiibohd.elf.dir/Output/pjrcUSB/arm/usb_joystick.c.o
 .group         0x0000000000000000        0x8 CMakeFiles/kiibohd.elf.dir/Output/pjrcUSB/arm/usb_joystick.c.o
 .group         0x0000000000000000        0x8 CMakeFiles/kiibohd.elf.dir/Output/pjrcUSB/arm/usb_joystick.c.o
 .group         0x0000000000000000        0x8 CMakeFiles/kiibohd.elf.dir/Output/pjrcUSB/arm/usb_joystick.c.o
 .group         0x0000000000000000        0x8 CMakeFiles/kiibohd.elf.dir/Output/pjrcUSB/arm/usb_joystick.c.o
 .group         0x0000000000000000        0x8 CMakeFiles/kiibohd.elf.dir/Output/pjrcUSB/arm/usb_joystick.c.o
 .group         0x0000000000000000        0x8 CMakeFiles/kiibohd.elf.dir/Output/pjrcUSB/arm/usb_joystick.c.o
 .group         0x0000000000000000        0x8 CMakeFiles/kiibohd.elf.dir/Output/pjrcUSB/arm/usb_joystick.c.o
 .group         0x0000000000000000        0x8 CMakeFiles/kiibohd.elf.dir/Output/pjrcUSB/arm/usb_joystick.c.o
 .group         0x0000000000000000        0x8 CMakeFiles/kiibohd.elf.dir/Output/pjrcUSB/arm/usb_joystick.c.o
 .group         0x0000000000000000        0x8 CMakeFiles/kiibohd.elf.dir/Output/pjrcUSB/arm/usb_joystick.c.o
 .group         0x0000000000000000        0x8 CMakeFiles/kiibohd.elf.dir/Output/pjrcUSB/arm/usb_joystick.c.o
 .group         0x0000000000000000        0x8 CMakeFiles/kiibohd.elf.dir/Output/pjrcUSB/arm/usb_joystick.c.o
 .group         0x0000000000000000        0x8 CMakeFiles/kiibohd.elf.dir/Output/pjrcUSB/arm/usb_joystick.c.o
 .group         0x0000000000000000        0x8 CMakeFiles/kiibohd.elf.dir/Output/pjrcUSB/arm/usb_joystick.c.o
 .group         0x0000000000000000        0x8 CMakeFiles/kiibohd.elf.dir/Output/pjrcUSB/arm/usb_joystick.c.o
 .group         0x0000000000000000        0x8 CMakeFiles/kiibohd.elf.dir/Output/pjrcUSB/arm/usb_joystick.c.o
 .group         0x0000000000000000        0x8 CMakeFiles/kiibohd.elf.dir/Output/pjrcUSB/arm/usb_joystick.c.o
 .group         0x0000000000000000        0x8 CMakeFiles/kiibohd.elf.dir/Output/pjrcUSB/arm/usb_joystick.c.o
 .group         0x0000000000000000        0x8 CMakeFiles/kiibohd.elf.dir/Output/pjrcUSB/arm/usb_joystick.c.o
 .group         0x0000000000000000        0x8 CMakeFiles/kiibohd.elf.dir/Output/pjrcUSB/arm/usb_joystick.c.o
 .group         0x0000000000000000        0x8 CMakeFiles/kiibohd.elf.dir/Output/pjrcUSB/arm/usb_joystick.c.o
 .group         0x0000000000000000        0x8 CMakeFiles/kiibohd.elf.dir/Output/pjrcUSB/arm/usb_joystick.c.o
 .group         0x0000000000000000        0x8 CMakeFiles/kiibohd.elf.dir/Output/pjrcUSB/arm/usb_joystick.c.o
 .group         0x0000000000000000        0x8 CMakeFiles/kiibohd.elf.dir/Output/pjrcUSB/arm/usb_joystick.c.o
 .group         0x0000000000000000        0x8 CMakeFiles/kiibohd.elf.dir/Output/pjrcUSB/arm/usb_joystick.c.o
 .text          0x0000000000000000        0x0 CMakeFiles/kiibohd.elf.dir/Output/pjrcUSB/arm/usb_joystick.c.o
 .data          0x0000000000000000        0x0 CMakeFiles/kiibohd.elf.dir/Output/pjrcUSB/arm/usb_joystick.c.o
 .bss           0x0000000000000000        0x0 CMakeFiles/kiibohd.elf.dir/Output/pjrcUSB/arm/usb_joystick.c.o
 .text.usb_joystick_send
                0x0000000000000000       0x68 CMakeFiles/kiibohd.elf.dir/Output/pjrcUSB/arm/usb_joystick.c.o
 .bss.transmit_previous_timeout
                0x0000000000000000        0x1 CMakeFiles/kiibohd.elf.dir/Output/pjrcUSB/arm/usb_joystick.c.o
 .debug_info    0x0000000000000000      0x29b CMakeFiles/kiibohd.elf.dir/Output/pjrcUSB/arm/usb_joystick.c.o
 .debug_abbrev  0x0000000000000000      0x16b CMakeFiles/kiibohd.elf.dir/Output/pjrcUSB/arm/usb_joystick.c.o
 .debug_loc     0x0000000000000000       0x76 CMakeFiles/kiibohd.elf.dir/Output/pjrcUSB/arm/usb_joystick.c.o
 .debug_aranges
                0x0000000000000000       0x20 CMakeFiles/kiibohd.elf.dir/Output/pjrcUSB/arm/usb_joystick.c.o
 .debug_ranges  0x0000000000000000       0x10 CMakeFiles/kiibohd.elf.dir/Output/pjrcUSB/arm/usb_joystick.c.o
 .debug_macro   0x0000000000000000      0x174 CMakeFiles/kiibohd.elf.dir/Output/pjrcUSB/arm/usb_joystick.c.o
 .debug_macro   0x0000000000000000      0x886 CMakeFiles/kiibohd.elf.dir/Output/pjrcUSB/arm/usb_joystick.c.o
 .debug_macro   0x0000000000000000       0x58 CMakeFiles/kiibohd.elf.dir/Output/pjrcUSB/arm/usb_joystick.c.o
 .debug_macro   0x0000000000000000       0x22 CMakeFiles/kiibohd.elf.dir/Output/pjrcUSB/arm/usb_joystick.c.o
 .debug_macro   0x0000000000000000       0x35 CMakeFiles/kiibohd.elf.dir/Output/pjrcUSB/arm/usb_joystick.c.o
 .debug_macro   0x0000000000000000       0x9c CMakeFiles/kiibohd.elf.dir/Output/pjrcUSB/arm/usb_joystick.c.o
 .debug_macro   0x0000000000000000      0x16d CMakeFiles/kiibohd.elf.dir/Output/pjrcUSB/arm/usb_joystick.c.o
 .debug_macro   0x0000000000000000       0x4a CMakeFiles/kiibohd.elf.dir/Output/pjrcUSB/arm/usb_joystick.c.o
 .debug_macro   0x0000000000000000       0x52 CMakeFiles/kiibohd.elf.dir/Output/pjrcUSB/arm/usb_joystick.c.o
 .debug_macro   0x0000000000000000       0x16 CMakeFiles/kiibohd.elf.dir/Output/pjrcUSB/arm/usb_joystick.c.o
 .debug_macro   0x0000000000000000       0x43 CMakeFiles/kiibohd.elf.dir/Output/pjrcUSB/arm/usb_joystick.c.o
 .debug_macro   0x0000000000000000      0x180 CMakeFiles/kiibohd.elf.dir/Output/pjrcUSB/arm/usb_joystick.c.o
 .debug_macro   0x0000000000000000      0x27a CMakeFiles/kiibohd.elf.dir/Output/pjrcUSB/arm/usb_joystick.c.o
 .debug_macro   0x0000000000000000       0x10 CMakeFiles/kiibohd.elf.dir/Output/pjrcUSB/arm/usb_joystick.c.o
 .debug_macro   0x0000000000000000       0x35 CMakeFiles/kiibohd.elf.dir/Output/pjrcUSB/arm/usb_joystick.c.o
 .debug_macro   0x0000000000000000       0x10 CMakeFiles/kiibohd.elf.dir/Output/pjrcUSB/arm/usb_joystick.c.o
 .debug_macro   0x0000000000000000       0x58 CMakeFiles/kiibohd.elf.dir/Output/pjrcUSB/arm/usb_joystick.c.o
 .debug_macro   0x0000000000000000       0x22 CMakeFiles/kiibohd.elf.dir/Output/pjrcUSB/arm/usb_joystick.c.o
 .debug_macro   0x0000000000000000      0x1df CMakeFiles/kiibohd.elf.dir/Output/pjrcUSB/arm/usb_joystick.c.o
 .debug_macro   0x0000000000000000     0x301e CMakeFiles/kiibohd.elf.dir/Output/pjrcUSB/arm/usb_joystick.c.o
 .debug_macro   0x0000000000000000       0x10 CMakeFiles/kiibohd.elf.dir/Output/pjrcUSB/arm/usb_joystick.c.o
 .debug_macro   0x0000000000000000       0x76 CMakeFiles/kiibohd.elf.dir/Output/pjrcUSB/arm/usb_joystick.c.o
 .debug_macro   0x0000000000000000       0x10 CMakeFiles/kiibohd.elf.dir/Output/pjrcUSB/arm/usb_joystick.c.o
 .debug_macro   0x0000000000000000       0x9a CMakeFiles/kiibohd.elf.dir/Output/pjrcUSB/arm/usb_joystick.c.o
 .debug_macro   0x0000000000000000      0x178 CMakeFiles/kiibohd.elf.dir/Output/pjrcUSB/arm/usb_joystick.c.o
 .debug_macro   0x0000000000000000       0x10 CMakeFiles/kiibohd.elf.dir/Output/pjrcUSB/arm/usb_joystick.c.o
 .debug_macro   0x0000000000000000      0x3fa CMakeFiles/kiibohd.elf.dir/Output/pjrcUSB/arm/usb_joystick.c.o
 .debug_line    0x0000000000000000      0x3af CMakeFiles/kiibohd.elf.dir/Output/pjrcUSB/arm/usb_joystick.c.o
 .debug_str     0x0000000000000000    0x17a15 CMakeFiles/kiibohd.elf.dir/Output/pjrcUSB/arm/usb_joystick.c.o
 .comment       0x0000000000000000       0x71 CMakeFiles/kiibohd.elf.dir/Output/pjrcUSB/arm/usb_joystick.c.o
 .debug_frame   0x0000000000000000       0x2c CMakeFiles/kiibohd.elf.dir/Output/pjrcUSB/arm/usb_joystick.c.o
 .ARM.attributes
                0x0000000000000000       0x33 CMakeFiles/kiibohd.elf.dir/Output/pjrcUSB/arm/usb_joystick.c.o
 COMMON         0x0000000000000000        0xc CMakeFiles/kiibohd.elf.dir/Output/pjrcUSB/arm/usb_joystick.c.o
 .group         0x0000000000000000        0x8 CMakeFiles/kiibohd.elf.dir/Output/pjrcUSB/arm/usb_keyboard.c.o
 .group         0x0000000000000000        0x8 CMakeFiles/kiibohd.elf.dir/Output/pjrcUSB/arm/usb_keyboard.c.o
 .group         0x0000000000000000        0x8 CMakeFiles/kiibohd.elf.dir/Output/pjrcUSB/arm/usb_keyboard.c.o
 .group         0x0000000000000000        0x8 CMakeFiles/kiibohd.elf.dir/Output/pjrcUSB/arm/usb_keyboard.c.o
 .group         0x0000000000000000        0x8 CMakeFiles/kiibohd.elf.dir/Output/pjrcUSB/arm/usb_keyboard.c.o
 .group         0x0000000000000000        0x8 CMakeFiles/kiibohd.elf.dir/Output/pjrcUSB/arm/usb_keyboard.c.o
 .group         0x0000000000000000        0x8 CMakeFiles/kiibohd.elf.dir/Output/pjrcUSB/arm/usb_keyboard.c.o
 .group         0x0000000000000000        0x8 CMakeFiles/kiibohd.elf.dir/Output/pjrcUSB/arm/usb_keyboard.c.o
 .group         0x0000000000000000        0x8 CMakeFiles/kiibohd.elf.dir/Output/pjrcUSB/arm/usb_keyboard.c.o
 .group         0x0000000000000000        0x8 CMakeFiles/kiibohd.elf.dir/Output/pjrcUSB/arm/usb_keyboard.c.o
 .group         0x0000000000000000        0x8 CMakeFiles/kiibohd.elf.dir/Output/pjrcUSB/arm/usb_keyboard.c.o
 .group         0x0000000000000000        0x8 CMakeFiles/kiibohd.elf.dir/Output/pjrcUSB/arm/usb_keyboard.c.o
 .group         0x0000000000000000        0x8 CMakeFiles/kiibohd.elf.dir/Output/pjrcUSB/arm/usb_keyboard.c.o
 .group         0x0000000000000000        0x8 CMakeFiles/kiibohd.elf.dir/Output/pjrcUSB/arm/usb_keyboard.c.o
 .group         0x0000000000000000        0x8 CMakeFiles/kiibohd.elf.dir/Output/pjrcUSB/arm/usb_keyboard.c.o
 .group         0x0000000000000000        0x8 CMakeFiles/kiibohd.elf.dir/Output/pjrcUSB/arm/usb_keyboard.c.o
 .group         0x0000000000000000        0x8 CMakeFiles/kiibohd.elf.dir/Output/pjrcUSB/arm/usb_keyboard.c.o
 .group         0x0000000000000000        0x8 CMakeFiles/kiibohd.elf.dir/Output/pjrcUSB/arm/usb_keyboard.c.o
 .group         0x0000000000000000        0x8 CMakeFiles/kiibohd.elf.dir/Output/pjrcUSB/arm/usb_keyboard.c.o
 .group         0x0000000000000000        0x8 CMakeFiles/kiibohd.elf.dir/Output/pjrcUSB/arm/usb_keyboard.c.o
 .group         0x0000000000000000        0x8 CMakeFiles/kiibohd.elf.dir/Output/pjrcUSB/arm/usb_keyboard.c.o
 .group         0x0000000000000000        0x8 CMakeFiles/kiibohd.elf.dir/Output/pjrcUSB/arm/usb_keyboard.c.o
 .group         0x0000000000000000        0x8 CMakeFiles/kiibohd.elf.dir/Output/pjrcUSB/arm/usb_keyboard.c.o
 .group         0x0000000000000000        0x8 CMakeFiles/kiibohd.elf.dir/Output/pjrcUSB/arm/usb_keyboard.c.o
 .group         0x0000000000000000        0x8 CMakeFiles/kiibohd.elf.dir/Output/pjrcUSB/arm/usb_keyboard.c.o
 .group         0x0000000000000000        0x8 CMakeFiles/kiibohd.elf.dir/Output/pjrcUSB/arm/usb_keyboard.c.o
 .text          0x0000000000000000        0x0 CMakeFiles/kiibohd.elf.dir/Output/pjrcUSB/arm/usb_keyboard.c.o
 .data          0x0000000000000000        0x0 CMakeFiles/kiibohd.elf.dir/Output/pjrcUSB/arm/usb_keyboard.c.o
 .bss           0x0000000000000000        0x0 CMakeFiles/kiibohd.elf.dir/Output/pjrcUSB/arm/usb_keyboard.c.o
 .debug_macro   0x0000000000000000      0x886 CMakeFiles/kiibohd.elf.dir/Output/pjrcUSB/arm/usb_keyboard.c.o
 .debug_macro   0x0000000000000000       0x58 CMakeFiles/kiibohd.elf.dir/Output/pjrcUSB/arm/usb_keyboard.c.o
 .debug_macro   0x0000000000000000       0x22 CMakeFiles/kiibohd.elf.dir/Output/pjrcUSB/arm/usb_keyboard.c.o
 .debug_macro   0x0000000000000000       0x35 CMakeFiles/kiibohd.elf.dir/Output/pjrcUSB/arm/usb_keyboard.c.o
 .debug_macro   0x0000000000000000       0x9c CMakeFiles/kiibohd.elf.dir/Output/pjrcUSB/arm/usb_keyboard.c.o
 .debug_macro   0x0000000000000000      0x16d CMakeFiles/kiibohd.elf.dir/Output/pjrcUSB/arm/usb_keyboard.c.o
 .debug_macro   0x0000000000000000       0x4a CMakeFiles/kiibohd.elf.dir/Output/pjrcUSB/arm/usb_keyboard.c.o
 .debug_macro   0x0000000000000000       0x52 CMakeFiles/kiibohd.elf.dir/Output/pjrcUSB/arm/usb_keyboard.c.o
 .debug_macro   0x0000000000000000       0x16 CMakeFiles/kiibohd.elf.dir/Output/pjrcUSB/arm/usb_keyboard.c.o
 .debug_macro   0x0000000000000000       0x43 CMakeFiles/kiibohd.elf.dir/Output/pjrcUSB/arm/usb_keyboard.c.o
 .debug_macro   0x0000000000000000      0x180 CMakeFiles/kiibohd.elf.dir/Output/pjrcUSB/arm/usb_keyboard.c.o
 .debug_macro   0x0000000000000000      0x27a CMakeFiles/kiibohd.elf.dir/Output/pjrcUSB/arm/usb_keyboard.c.o
 .debug_macro   0x0000000000000000       0x10 CMakeFiles/kiibohd.elf.dir/Output/pjrcUSB/arm/usb_keyboard.c.o
 .debug_macro   0x0000000000000000       0x35 CMakeFiles/kiibohd.elf.dir/Output/pjrcUSB/arm/usb_keyboard.c.o
 .debug_macro   0x0000000000000000       0x10 CMakeFiles/kiibohd.elf.dir/Output/pjrcUSB/arm/usb_keyboard.c.o
 .debug_macro   0x0000000000000000       0x58 CMakeFiles/kiibohd.elf.dir/Output/pjrcUSB/arm/usb_keyboard.c.o
 .debug_macro   0x0000000000000000       0x22 CMakeFiles/kiibohd.elf.dir/Output/pjrcUSB/arm/usb_keyboard.c.o
 .debug_macro   0x0000000000000000      0x1df CMakeFiles/kiibohd.elf.dir/Output/pjrcUSB/arm/usb_keyboard.c.o
 .debug_macro   0x0000000000000000     0x301e CMakeFiles/kiibohd.elf.dir/Output/pjrcUSB/arm/usb_keyboard.c.o
 .debug_macro   0x0000000000000000       0x10 CMakeFiles/kiibohd.elf.dir/Output/pjrcUSB/arm/usb_keyboard.c.o
 .debug_macro   0x0000000000000000       0x76 CMakeFiles/kiibohd.elf.dir/Output/pjrcUSB/arm/usb_keyboard.c.o
 .debug_macro   0x0000000000000000       0x10 CMakeFiles/kiibohd.elf.dir/Output/pjrcUSB/arm/usb_keyboard.c.o
 .debug_macro   0x0000000000000000       0x9a CMakeFiles/kiibohd.elf.dir/Output/pjrcUSB/arm/usb_keyboard.c.o
 .debug_macro   0x0000000000000000      0x178 CMakeFiles/kiibohd.elf.dir/Output/pjrcUSB/arm/usb_keyboard.c.o
 .debug_macro   0x0000000000000000       0x10 CMakeFiles/kiibohd.elf.dir/Output/pjrcUSB/arm/usb_keyboard.c.o
 .debug_macro   0x0000000000000000      0x3fa CMakeFiles/kiibohd.elf.dir/Output/pjrcUSB/arm/usb_keyboard.c.o
 .group         0x0000000000000000        0x8 CMakeFiles/kiibohd.elf.dir/Output/pjrcUSB/arm/usb_mem.c.o
 .group         0x0000000000000000        0x8 CMakeFiles/kiibohd.elf.dir/Output/pjrcUSB/arm/usb_mem.c.o
 .group         0x0000000000000000        0x8 CMakeFiles/kiibohd.elf.dir/Output/pjrcUSB/arm/usb_mem.c.o
 .group         0x0000000000000000        0x8 CMakeFiles/kiibohd.elf.dir/Output/pjrcUSB/arm/usb_mem.c.o
 .group         0x0000000000000000        0x8 CMakeFiles/kiibohd.elf.dir/Output/pjrcUSB/arm/usb_mem.c.o
 .group         0x0000000000000000        0x8 CMakeFiles/kiibohd.elf.dir/Output/pjrcUSB/arm/usb_mem.c.o
 .group         0x0000000000000000        0x8 CMakeFiles/kiibohd.elf.dir/Output/pjrcUSB/arm/usb_mem.c.o
 .group         0x0000000000000000        0x8 CMakeFiles/kiibohd.elf.dir/Output/pjrcUSB/arm/usb_mem.c.o
 .group         0x0000000000000000        0x8 CMakeFiles/kiibohd.elf.dir/Output/pjrcUSB/arm/usb_mem.c.o
 .group         0x0000000000000000        0x8 CMakeFiles/kiibohd.elf.dir/Output/pjrcUSB/arm/usb_mem.c.o
 .group         0x0000000000000000        0x8 CMakeFiles/kiibohd.elf.dir/Output/pjrcUSB/arm/usb_mem.c.o
 .group         0x0000000000000000        0x8 CMakeFiles/kiibohd.elf.dir/Output/pjrcUSB/arm/usb_mem.c.o
 .group         0x0000000000000000        0x8 CMakeFiles/kiibohd.elf.dir/Output/pjrcUSB/arm/usb_mem.c.o
 .text          0x0000000000000000        0x0 CMakeFiles/kiibohd.elf.dir/Output/pjrcUSB/arm/usb_mem.c.o
 .data          0x0000000000000000        0x0 CMakeFiles/kiibohd.elf.dir/Output/pjrcUSB/arm/usb_mem.c.o
 .bss           0x0000000000000000        0x0 CMakeFiles/kiibohd.elf.dir/Output/pjrcUSB/arm/usb_mem.c.o
 .debug_macro   0x0000000000000000      0x886 CMakeFiles/kiibohd.elf.dir/Output/pjrcUSB/arm/usb_mem.c.o
 .debug_macro   0x0000000000000000       0x16 CMakeFiles/kiibohd.elf.dir/Output/pjrcUSB/arm/usb_mem.c.o
 .debug_macro   0x0000000000000000       0x22 CMakeFiles/kiibohd.elf.dir/Output/pjrcUSB/arm/usb_mem.c.o
 .debug_macro   0x0000000000000000       0x44 CMakeFiles/kiibohd.elf.dir/Output/pjrcUSB/arm/usb_mem.c.o
 .debug_macro   0x0000000000000000       0x58 CMakeFiles/kiibohd.elf.dir/Output/pjrcUSB/arm/usb_mem.c.o
 .debug_macro   0x0000000000000000       0x22 CMakeFiles/kiibohd.elf.dir/Output/pjrcUSB/arm/usb_mem.c.o
 .debug_macro   0x0000000000000000      0x1df CMakeFiles/kiibohd.elf.dir/Output/pjrcUSB/arm/usb_mem.c.o
 .debug_macro   0x0000000000000000     0x301e CMakeFiles/kiibohd.elf.dir/Output/pjrcUSB/arm/usb_mem.c.o
 .debug_macro   0x0000000000000000       0x10 CMakeFiles/kiibohd.elf.dir/Output/pjrcUSB/arm/usb_mem.c.o
 .debug_macro   0x0000000000000000      0x16d CMakeFiles/kiibohd.elf.dir/Output/pjrcUSB/arm/usb_mem.c.o
 .debug_macro   0x0000000000000000       0x76 CMakeFiles/kiibohd.elf.dir/Output/pjrcUSB/arm/usb_mem.c.o
 .debug_macro   0x0000000000000000       0x10 CMakeFiles/kiibohd.elf.dir/Output/pjrcUSB/arm/usb_mem.c.o
 .debug_macro   0x0000000000000000      0x178 CMakeFiles/kiibohd.elf.dir/Output/pjrcUSB/arm/usb_mem.c.o
 .group         0x0000000000000000        0x8 CMakeFiles/kiibohd.elf.dir/Output/pjrcUSB/arm/usb_mouse.c.o
 .group         0x0000000000000000        0x8 CMakeFiles/kiibohd.elf.dir/Output/pjrcUSB/arm/usb_mouse.c.o
 .group         0x0000000000000000        0x8 CMakeFiles/kiibohd.elf.dir/Output/pjrcUSB/arm/usb_mouse.c.o
 .group         0x0000000000000000        0x8 CMakeFiles/kiibohd.elf.dir/Output/pjrcUSB/arm/usb_mouse.c.o
 .group         0x0000000000000000        0x8 CMakeFiles/kiibohd.elf.dir/Output/pjrcUSB/arm/usb_mouse.c.o
 .group         0x0000000000000000        0x8 CMakeFiles/kiibohd.elf.dir/Output/pjrcUSB/arm/usb_mouse.c.o
 .group         0x0000000000000000        0x8 CMakeFiles/kiibohd.elf.dir/Output/pjrcUSB/arm/usb_mouse.c.o
 .group         0x0000000000000000        0x8 CMakeFiles/kiibohd.elf.dir/Output/pjrcUSB/arm/usb_mouse.c.o
 .group         0x0000000000000000        0x8 CMakeFiles/kiibohd.elf.dir/Output/pjrcUSB/arm/usb_mouse.c.o
 .group         0x0000000000000000        0x8 CMakeFiles/kiibohd.elf.dir/Output/pjrcUSB/arm/usb_mouse.c.o
 .group         0x0000000000000000        0x8 CMakeFiles/kiibohd.elf.dir/Output/pjrcUSB/arm/usb_mouse.c.o
 .group         0x0000000000000000        0x8 CMakeFiles/kiibohd.elf.dir/Output/pjrcUSB/arm/usb_mouse.c.o
 .group         0x0000000000000000        0x8 CMakeFiles/kiibohd.elf.dir/Output/pjrcUSB/arm/usb_mouse.c.o
 .group         0x0000000000000000        0x8 CMakeFiles/kiibohd.elf.dir/Output/pjrcUSB/arm/usb_mouse.c.o
 .group         0x0000000000000000        0x8 CMakeFiles/kiibohd.elf.dir/Output/pjrcUSB/arm/usb_mouse.c.o
 .group         0x0000000000000000        0x8 CMakeFiles/kiibohd.elf.dir/Output/pjrcUSB/arm/usb_mouse.c.o
 .group         0x0000000000000000        0x8 CMakeFiles/kiibohd.elf.dir/Output/pjrcUSB/arm/usb_mouse.c.o
 .group         0x0000000000000000        0x8 CMakeFiles/kiibohd.elf.dir/Output/pjrcUSB/arm/usb_mouse.c.o
 .group         0x0000000000000000        0x8 CMakeFiles/kiibohd.elf.dir/Output/pjrcUSB/arm/usb_mouse.c.o
 .group         0x0000000000000000        0x8 CMakeFiles/kiibohd.elf.dir/Output/pjrcUSB/arm/usb_mouse.c.o
 .group         0x0000000000000000        0x8 CMakeFiles/kiibohd.elf.dir/Output/pjrcUSB/arm/usb_mouse.c.o
 .group         0x0000000000000000        0x8 CMakeFiles/kiibohd.elf.dir/Output/pjrcUSB/arm/usb_mouse.c.o
 .group         0x0000000000000000        0x8 CMakeFiles/kiibohd.elf.dir/Output/pjrcUSB/arm/usb_mouse.c.o
 .group         0x0000000000000000        0x8 CMakeFiles/kiibohd.elf.dir/Output/pjrcUSB/arm/usb_mouse.c.o
 .group         0x0000000000000000        0x8 CMakeFiles/kiibohd.elf.dir/Output/pjrcUSB/arm/usb_mouse.c.o
 .group         0x0000000000000000        0x8 CMakeFiles/kiibohd.elf.dir/Output/pjrcUSB/arm/usb_mouse.c.o
 .text          0x0000000000000000        0x0 CMakeFiles/kiibohd.elf.dir/Output/pjrcUSB/arm/usb_mouse.c.o
 .data          0x0000000000000000        0x0 CMakeFiles/kiibohd.elf.dir/Output/pjrcUSB/arm/usb_mouse.c.o
 .bss           0x0000000000000000        0x0 CMakeFiles/kiibohd.elf.dir/Output/pjrcUSB/arm/usb_mouse.c.o
 .text.usb_mouse_move
                0x0000000000000000       0xa0 CMakeFiles/kiibohd.elf.dir/Output/pjrcUSB/arm/usb_mouse.c.o
 .text.usb_mouse_position
                0x0000000000000000       0xd0 CMakeFiles/kiibohd.elf.dir/Output/pjrcUSB/arm/usb_mouse.c.o
 .text.usb_mouse_screen_size
                0x0000000000000000       0xc8 CMakeFiles/kiibohd.elf.dir/Output/pjrcUSB/arm/usb_mouse.c.o
 .bss.usb_mouse_buttons_state
                0x0000000000000000        0x1 CMakeFiles/kiibohd.elf.dir/Output/pjrcUSB/arm/usb_mouse.c.o
 .data.usb_mouse_scale_x
                0x0000000000000000        0x4 CMakeFiles/kiibohd.elf.dir/Output/pjrcUSB/arm/usb_mouse.c.o
 .data.usb_mouse_scale_y
                0x0000000000000000        0x4 CMakeFiles/kiibohd.elf.dir/Output/pjrcUSB/arm/usb_mouse.c.o
 .data.usb_mouse_position_x
                0x0000000000000000        0x2 CMakeFiles/kiibohd.elf.dir/Output/pjrcUSB/arm/usb_mouse.c.o
 .data.usb_mouse_position_y
                0x0000000000000000        0x2 CMakeFiles/kiibohd.elf.dir/Output/pjrcUSB/arm/usb_mouse.c.o
 .data.usb_mouse_offset_x
                0x0000000000000000        0x4 CMakeFiles/kiibohd.elf.dir/Output/pjrcUSB/arm/usb_mouse.c.o
 .data.usb_mouse_offset_y
                0x0000000000000000        0x4 CMakeFiles/kiibohd.elf.dir/Output/pjrcUSB/arm/usb_mouse.c.o
 .data.usb_mouse_resolution_x
                0x0000000000000000        0x2 CMakeFiles/kiibohd.elf.dir/Output/pjrcUSB/arm/usb_mouse.c.o
 .data.usb_mouse_resolution_y
                0x0000000000000000        0x2 CMakeFiles/kiibohd.elf.dir/Output/pjrcUSB/arm/usb_mouse.c.o
 .debug_macro   0x0000000000000000      0x886 CMakeFiles/kiibohd.elf.dir/Output/pjrcUSB/arm/usb_mouse.c.o
 .debug_macro   0x0000000000000000       0x58 CMakeFiles/kiibohd.elf.dir/Output/pjrcUSB/arm/usb_mouse.c.o
 .debug_macro   0x0000000000000000       0x22 CMakeFiles/kiibohd.elf.dir/Output/pjrcUSB/arm/usb_mouse.c.o
 .debug_macro   0x0000000000000000       0x35 CMakeFiles/kiibohd.elf.dir/Output/pjrcUSB/arm/usb_mouse.c.o
 .debug_macro   0x0000000000000000       0x9c CMakeFiles/kiibohd.elf.dir/Output/pjrcUSB/arm/usb_mouse.c.o
 .debug_macro   0x0000000000000000      0x16d CMakeFiles/kiibohd.elf.dir/Output/pjrcUSB/arm/usb_mouse.c.o
 .debug_macro   0x0000000000000000       0x4a CMakeFiles/kiibohd.elf.dir/Output/pjrcUSB/arm/usb_mouse.c.o
 .debug_macro   0x0000000000000000       0x52 CMakeFiles/kiibohd.elf.dir/Output/pjrcUSB/arm/usb_mouse.c.o
 .debug_macro   0x0000000000000000       0x16 CMakeFiles/kiibohd.elf.dir/Output/pjrcUSB/arm/usb_mouse.c.o
 .debug_macro   0x0000000000000000       0x43 CMakeFiles/kiibohd.elf.dir/Output/pjrcUSB/arm/usb_mouse.c.o
 .debug_macro   0x0000000000000000      0x180 CMakeFiles/kiibohd.elf.dir/Output/pjrcUSB/arm/usb_mouse.c.o
 .debug_macro   0x0000000000000000      0x27a CMakeFiles/kiibohd.elf.dir/Output/pjrcUSB/arm/usb_mouse.c.o
 .debug_macro   0x0000000000000000       0x10 CMakeFiles/kiibohd.elf.dir/Output/pjrcUSB/arm/usb_mouse.c.o
 .debug_macro   0x0000000000000000       0x35 CMakeFiles/kiibohd.elf.dir/Output/pjrcUSB/arm/usb_mouse.c.o
 .debug_macro   0x0000000000000000       0x10 CMakeFiles/kiibohd.elf.dir/Output/pjrcUSB/arm/usb_mouse.c.o
 .debug_macro   0x0000000000000000       0x58 CMakeFiles/kiibohd.elf.dir/Output/pjrcUSB/arm/usb_mouse.c.o
 .debug_macro   0x0000000000000000       0x22 CMakeFiles/kiibohd.elf.dir/Output/pjrcUSB/arm/usb_mouse.c.o
 .debug_macro   0x0000000000000000      0x1df CMakeFiles/kiibohd.elf.dir/Output/pjrcUSB/arm/usb_mouse.c.o
 .debug_macro   0x0000000000000000     0x301e CMakeFiles/kiibohd.elf.dir/Output/pjrcUSB/arm/usb_mouse.c.o
 .debug_macro   0x0000000000000000       0x10 CMakeFiles/kiibohd.elf.dir/Output/pjrcUSB/arm/usb_mouse.c.o
 .debug_macro   0x0000000000000000       0x76 CMakeFiles/kiibohd.elf.dir/Output/pjrcUSB/arm/usb_mouse.c.o
 .debug_macro   0x0000000000000000       0x10 CMakeFiles/kiibohd.elf.dir/Output/pjrcUSB/arm/usb_mouse.c.o
 .debug_macro   0x0000000000000000       0x9a CMakeFiles/kiibohd.elf.dir/Output/pjrcUSB/arm/usb_mouse.c.o
 .debug_macro   0x0000000000000000      0x178 CMakeFiles/kiibohd.elf.dir/Output/pjrcUSB/arm/usb_mouse.c.o
 .debug_macro   0x0000000000000000       0x10 CMakeFiles/kiibohd.elf.dir/Output/pjrcUSB/arm/usb_mouse.c.o
 .debug_macro   0x0000000000000000      0x3fa CMakeFiles/kiibohd.elf.dir/Output/pjrcUSB/arm/usb_mouse.c.o
 .group         0x0000000000000000        0x8 CMakeFiles/kiibohd.elf.dir/Output/pjrcUSB/arm/usb_serial.c.o
 .group         0x0000000000000000        0x8 CMakeFiles/kiibohd.elf.dir/Output/pjrcUSB/arm/usb_serial.c.o
 .group         0x0000000000000000        0x8 CMakeFiles/kiibohd.elf.dir/Output/pjrcUSB/arm/usb_serial.c.o
 .group         0x0000000000000000        0x8 CMakeFiles/kiibohd.elf.dir/Output/pjrcUSB/arm/usb_serial.c.o
 .group         0x0000000000000000        0x8 CMakeFiles/kiibohd.elf.dir/Output/pjrcUSB/arm/usb_serial.c.o
 .group         0x0000000000000000        0x8 CMakeFiles/kiibohd.elf.dir/Output/pjrcUSB/arm/usb_serial.c.o
 .group         0x0000000000000000        0x8 CMakeFiles/kiibohd.elf.dir/Output/pjrcUSB/arm/usb_serial.c.o
 .group         0x0000000000000000        0x8 CMakeFiles/kiibohd.elf.dir/Output/pjrcUSB/arm/usb_serial.c.o
 .group         0x0000000000000000        0x8 CMakeFiles/kiibohd.elf.dir/Output/pjrcUSB/arm/usb_serial.c.o
 .group         0x0000000000000000        0x8 CMakeFiles/kiibohd.elf.dir/Output/pjrcUSB/arm/usb_serial.c.o
 .group         0x0000000000000000        0x8 CMakeFiles/kiibohd.elf.dir/Output/pjrcUSB/arm/usb_serial.c.o
 .group         0x0000000000000000        0x8 CMakeFiles/kiibohd.elf.dir/Output/pjrcUSB/arm/usb_serial.c.o
 .group         0x0000000000000000        0x8 CMakeFiles/kiibohd.elf.dir/Output/pjrcUSB/arm/usb_serial.c.o
 .group         0x0000000000000000        0x8 CMakeFiles/kiibohd.elf.dir/Output/pjrcUSB/arm/usb_serial.c.o
 .group         0x0000000000000000        0x8 CMakeFiles/kiibohd.elf.dir/Output/pjrcUSB/arm/usb_serial.c.o
 .group         0x0000000000000000        0x8 CMakeFiles/kiibohd.elf.dir/Output/pjrcUSB/arm/usb_serial.c.o
 .group         0x0000000000000000        0x8 CMakeFiles/kiibohd.elf.dir/Output/pjrcUSB/arm/usb_serial.c.o
 .group         0x0000000000000000        0x8 CMakeFiles/kiibohd.elf.dir/Output/pjrcUSB/arm/usb_serial.c.o
 .group         0x0000000000000000        0x8 CMakeFiles/kiibohd.elf.dir/Output/pjrcUSB/arm/usb_serial.c.o
 .group         0x0000000000000000        0x8 CMakeFiles/kiibohd.elf.dir/Output/pjrcUSB/arm/usb_serial.c.o
 .group         0x0000000000000000        0x8 CMakeFiles/kiibohd.elf.dir/Output/pjrcUSB/arm/usb_serial.c.o
 .group         0x0000000000000000        0x8 CMakeFiles/kiibohd.elf.dir/Output/pjrcUSB/arm/usb_serial.c.o
 .group         0x0000000000000000        0x8 CMakeFiles/kiibohd.elf.dir/Output/pjrcUSB/arm/usb_serial.c.o
 .group         0x0000000000000000        0x8 CMakeFiles/kiibohd.elf.dir/Output/pjrcUSB/arm/usb_serial.c.o
 .group         0x0000000000000000        0x8 CMakeFiles/kiibohd.elf.dir/Output/pjrcUSB/arm/usb_serial.c.o
 .group         0x0000000000000000        0x8 CMakeFiles/kiibohd.elf.dir/Output/pjrcUSB/arm/usb_serial.c.o
 .text          0x0000000000000000        0x0 CMakeFiles/kiibohd.elf.dir/Output/pjrcUSB/arm/usb_serial.c.o
 .data          0x0000000000000000        0x0 CMakeFiles/kiibohd.elf.dir/Output/pjrcUSB/arm/usb_serial.c.o
 .bss           0x0000000000000000        0x0 CMakeFiles/kiibohd.elf.dir/Output/pjrcUSB/arm/usb_serial.c.o
 .text.usb_serial_peekchar
                0x0000000000000000       0x38 CMakeFiles/kiibohd.elf.dir/Output/pjrcUSB/arm/usb_serial.c.o
 .text.usb_serial_read
                0x0000000000000000       0x80 CMakeFiles/kiibohd.elf.dir/Output/pjrcUSB/arm/usb_serial.c.o
 .text.usb_serial_flush_input
                0x0000000000000000       0x30 CMakeFiles/kiibohd.elf.dir/Output/pjrcUSB/arm/usb_serial.c.o
 .text.usb_serial_putchar
                0x0000000000000000       0x16 CMakeFiles/kiibohd.elf.dir/Output/pjrcUSB/arm/usb_serial.c.o
 .text.usb_serial_flush_output
                0x0000000000000000       0x5c CMakeFiles/kiibohd.elf.dir/Output/pjrcUSB/arm/usb_serial.c.o
 .debug_macro   0x0000000000000000      0x886 CMakeFiles/kiibohd.elf.dir/Output/pjrcUSB/arm/usb_serial.c.o
 .debug_macro   0x0000000000000000       0x58 CMakeFiles/kiibohd.elf.dir/Output/pjrcUSB/arm/usb_serial.c.o
 .debug_macro   0x0000000000000000       0x22 CMakeFiles/kiibohd.elf.dir/Output/pjrcUSB/arm/usb_serial.c.o
 .debug_macro   0x0000000000000000       0x35 CMakeFiles/kiibohd.elf.dir/Output/pjrcUSB/arm/usb_serial.c.o
 .debug_macro   0x0000000000000000       0x9c CMakeFiles/kiibohd.elf.dir/Output/pjrcUSB/arm/usb_serial.c.o
 .debug_macro   0x0000000000000000      0x16d CMakeFiles/kiibohd.elf.dir/Output/pjrcUSB/arm/usb_serial.c.o
 .debug_macro   0x0000000000000000       0x4a CMakeFiles/kiibohd.elf.dir/Output/pjrcUSB/arm/usb_serial.c.o
 .debug_macro   0x0000000000000000       0x52 CMakeFiles/kiibohd.elf.dir/Output/pjrcUSB/arm/usb_serial.c.o
 .debug_macro   0x0000000000000000       0x16 CMakeFiles/kiibohd.elf.dir/Output/pjrcUSB/arm/usb_serial.c.o
 .debug_macro   0x0000000000000000       0x43 CMakeFiles/kiibohd.elf.dir/Output/pjrcUSB/arm/usb_serial.c.o
 .debug_macro   0x0000000000000000      0x180 CMakeFiles/kiibohd.elf.dir/Output/pjrcUSB/arm/usb_serial.c.o
 .debug_macro   0x0000000000000000      0x27a CMakeFiles/kiibohd.elf.dir/Output/pjrcUSB/arm/usb_serial.c.o
 .debug_macro   0x0000000000000000       0x10 CMakeFiles/kiibohd.elf.dir/Output/pjrcUSB/arm/usb_serial.c.o
 .debug_macro   0x0000000000000000       0x35 CMakeFiles/kiibohd.elf.dir/Output/pjrcUSB/arm/usb_serial.c.o
 .debug_macro   0x0000000000000000       0x10 CMakeFiles/kiibohd.elf.dir/Output/pjrcUSB/arm/usb_serial.c.o
 .debug_macro   0x0000000000000000       0x58 CMakeFiles/kiibohd.elf.dir/Output/pjrcUSB/arm/usb_serial.c.o
 .debug_macro   0x0000000000000000       0x22 CMakeFiles/kiibohd.elf.dir/Output/pjrcUSB/arm/usb_serial.c.o
 .debug_macro   0x0000000000000000      0x1df CMakeFiles/kiibohd.elf.dir/Output/pjrcUSB/arm/usb_serial.c.o
 .debug_macro   0x0000000000000000     0x301e CMakeFiles/kiibohd.elf.dir/Output/pjrcUSB/arm/usb_serial.c.o
 .debug_macro   0x0000000000000000       0x10 CMakeFiles/kiibohd.elf.dir/Output/pjrcUSB/arm/usb_serial.c.o
 .debug_macro   0x0000000000000000       0x76 CMakeFiles/kiibohd.elf.dir/Output/pjrcUSB/arm/usb_serial.c.o
 .debug_macro   0x0000000000000000       0x10 CMakeFiles/kiibohd.elf.dir/Output/pjrcUSB/arm/usb_serial.c.o
 .debug_macro   0x0000000000000000      0x178 CMakeFiles/kiibohd.elf.dir/Output/pjrcUSB/arm/usb_serial.c.o
 .debug_macro   0x0000000000000000       0x10 CMakeFiles/kiibohd.elf.dir/Output/pjrcUSB/arm/usb_serial.c.o
 .debug_macro   0x0000000000000000      0x3fa CMakeFiles/kiibohd.elf.dir/Output/pjrcUSB/arm/usb_serial.c.o
 .debug_macro   0x0000000000000000       0x22 CMakeFiles/kiibohd.elf.dir/Output/pjrcUSB/arm/usb_serial.c.o
 .group         0x0000000000000000        0x8 CMakeFiles/kiibohd.elf.dir/Debug/cli/cli.c.o
 .group         0x0000000000000000        0x8 CMakeFiles/kiibohd.elf.dir/Debug/cli/cli.c.o
 .group         0x0000000000000000        0x8 CMakeFiles/kiibohd.elf.dir/Debug/cli/cli.c.o
 .group         0x0000000000000000        0x8 CMakeFiles/kiibohd.elf.dir/Debug/cli/cli.c.o
 .group         0x0000000000000000        0x8 CMakeFiles/kiibohd.elf.dir/Debug/cli/cli.c.o
 .group         0x0000000000000000        0x8 CMakeFiles/kiibohd.elf.dir/Debug/cli/cli.c.o
 .group         0x0000000000000000        0x8 CMakeFiles/kiibohd.elf.dir/Debug/cli/cli.c.o
 .group         0x0000000000000000        0x8 CMakeFiles/kiibohd.elf.dir/Debug/cli/cli.c.o
 .group         0x0000000000000000        0x8 CMakeFiles/kiibohd.elf.dir/Debug/cli/cli.c.o
 .group         0x0000000000000000        0x8 CMakeFiles/kiibohd.elf.dir/Debug/cli/cli.c.o
 .group         0x0000000000000000        0x8 CMakeFiles/kiibohd.elf.dir/Debug/cli/cli.c.o
 .group         0x0000000000000000        0x8 CMakeFiles/kiibohd.elf.dir/Debug/cli/cli.c.o
 .group         0x0000000000000000        0x8 CMakeFiles/kiibohd.elf.dir/Debug/cli/cli.c.o
 .group         0x0000000000000000        0x8 CMakeFiles/kiibohd.elf.dir/Debug/cli/cli.c.o
 .text          0x0000000000000000        0x0 CMakeFiles/kiibohd.elf.dir/Debug/cli/cli.c.o
 .data          0x0000000000000000        0x0 CMakeFiles/kiibohd.elf.dir/Debug/cli/cli.c.o
 .bss           0x0000000000000000        0x0 CMakeFiles/kiibohd.elf.dir/Debug/cli/cli.c.o
 .debug_macro   0x0000000000000000      0x886 CMakeFiles/kiibohd.elf.dir/Debug/cli/cli.c.o
 .debug_macro   0x0000000000000000       0x76 CMakeFiles/kiibohd.elf.dir/Debug/cli/cli.c.o
 .debug_macro   0x0000000000000000       0x16 CMakeFiles/kiibohd.elf.dir/Debug/cli/cli.c.o
 .debug_macro   0x0000000000000000       0x22 CMakeFiles/kiibohd.elf.dir/Debug/cli/cli.c.o
 .debug_macro   0x0000000000000000       0x44 CMakeFiles/kiibohd.elf.dir/Debug/cli/cli.c.o
 .debug_macro   0x0000000000000000       0x58 CMakeFiles/kiibohd.elf.dir/Debug/cli/cli.c.o
 .debug_macro   0x0000000000000000       0x22 CMakeFiles/kiibohd.elf.dir/Debug/cli/cli.c.o
 .debug_macro   0x0000000000000000      0x1df CMakeFiles/kiibohd.elf.dir/Debug/cli/cli.c.o
 .debug_macro   0x0000000000000000     0x301e CMakeFiles/kiibohd.elf.dir/Debug/cli/cli.c.o
 .debug_macro   0x0000000000000000       0x10 CMakeFiles/kiibohd.elf.dir/Debug/cli/cli.c.o
 .debug_macro   0x0000000000000000       0x10 CMakeFiles/kiibohd.elf.dir/Debug/cli/cli.c.o
 .debug_macro   0x0000000000000000       0x3a CMakeFiles/kiibohd.elf.dir/Debug/cli/cli.c.o
 .debug_macro   0x0000000000000000       0x9a CMakeFiles/kiibohd.elf.dir/Debug/cli/cli.c.o
 .debug_macro   0x0000000000000000      0x145 CMakeFiles/kiibohd.elf.dir/Debug/cli/cli.c.o
 .group         0x0000000000000000        0x8 CMakeFiles/kiibohd.elf.dir/Debug/led/led.c.o
 .group         0x0000000000000000        0x8 CMakeFiles/kiibohd.elf.dir/Debug/led/led.c.o
 .group         0x0000000000000000        0x8 CMakeFiles/kiibohd.elf.dir/Debug/led/led.c.o
 .group         0x0000000000000000        0x8 CMakeFiles/kiibohd.elf.dir/Debug/led/led.c.o
 .group         0x0000000000000000        0x8 CMakeFiles/kiibohd.elf.dir/Debug/led/led.c.o
 .group         0x0000000000000000        0x8 CMakeFiles/kiibohd.elf.dir/Debug/led/led.c.o
 .group         0x0000000000000000        0x8 CMakeFiles/kiibohd.elf.dir/Debug/led/led.c.o
 .group         0x0000000000000000        0x8 CMakeFiles/kiibohd.elf.dir/Debug/led/led.c.o
 .group         0x0000000000000000        0x8 CMakeFiles/kiibohd.elf.dir/Debug/led/led.c.o
 .text          0x0000000000000000        0x0 CMakeFiles/kiibohd.elf.dir/Debug/led/led.c.o
 .data          0x0000000000000000        0x0 CMakeFiles/kiibohd.elf.dir/Debug/led/led.c.o
 .bss           0x0000000000000000        0x0 CMakeFiles/kiibohd.elf.dir/Debug/led/led.c.o
 .debug_macro   0x0000000000000000      0x886 CMakeFiles/kiibohd.elf.dir/Debug/led/led.c.o
 .debug_macro   0x0000000000000000       0x16 CMakeFiles/kiibohd.elf.dir/Debug/led/led.c.o
 .debug_macro   0x0000000000000000       0x22 CMakeFiles/kiibohd.elf.dir/Debug/led/led.c.o
 .debug_macro   0x0000000000000000       0x44 CMakeFiles/kiibohd.elf.dir/Debug/led/led.c.o
 .debug_macro   0x0000000000000000       0x58 CMakeFiles/kiibohd.elf.dir/Debug/led/led.c.o
 .debug_macro   0x0000000000000000       0x22 CMakeFiles/kiibohd.elf.dir/Debug/led/led.c.o
 .debug_macro   0x0000000000000000      0x1df CMakeFiles/kiibohd.elf.dir/Debug/led/led.c.o
 .debug_macro   0x0000000000000000     0x301e CMakeFiles/kiibohd.elf.dir/Debug/led/led.c.o
 .debug_macro   0x0000000000000000       0x10 CMakeFiles/kiibohd.elf.dir/Debug/led/led.c.o
 .group         0x0000000000000000        0x8 CMakeFiles/kiibohd.elf.dir/Debug/print/print.c.o
 .group         0x0000000000000000        0x8 CMakeFiles/kiibohd.elf.dir/Debug/print/print.c.o
 .group         0x0000000000000000        0x8 CMakeFiles/kiibohd.elf.dir/Debug/print/print.c.o
 .group         0x0000000000000000        0x8 CMakeFiles/kiibohd.elf.dir/Debug/print/print.c.o
 .group         0x0000000000000000        0x8 CMakeFiles/kiibohd.elf.dir/Debug/print/print.c.o
 .group         0x0000000000000000        0x8 CMakeFiles/kiibohd.elf.dir/Debug/print/print.c.o
 .group         0x0000000000000000        0x8 CMakeFiles/kiibohd.elf.dir/Debug/print/print.c.o
 .group         0x0000000000000000        0x8 CMakeFiles/kiibohd.elf.dir/Debug/print/print.c.o
 .group         0x0000000000000000        0x8 CMakeFiles/kiibohd.elf.dir/Debug/print/print.c.o
 .group         0x0000000000000000        0x8 CMakeFiles/kiibohd.elf.dir/Debug/print/print.c.o
 .text          0x0000000000000000        0x0 CMakeFiles/kiibohd.elf.dir/Debug/print/print.c.o
 .data          0x0000000000000000        0x0 CMakeFiles/kiibohd.elf.dir/Debug/print/print.c.o
 .bss           0x0000000000000000        0x0 CMakeFiles/kiibohd.elf.dir/Debug/print/print.c.o
 .debug_macro   0x0000000000000000      0x886 CMakeFiles/kiibohd.elf.dir/Debug/print/print.c.o
 .debug_macro   0x0000000000000000       0x22 CMakeFiles/kiibohd.elf.dir/Debug/print/print.c.o
 .debug_macro   0x0000000000000000       0x44 CMakeFiles/kiibohd.elf.dir/Debug/print/print.c.o
 .debug_macro   0x0000000000000000       0x58 CMakeFiles/kiibohd.elf.dir/Debug/print/print.c.o
 .debug_macro   0x0000000000000000       0x22 CMakeFiles/kiibohd.elf.dir/Debug/print/print.c.o
 .debug_macro   0x0000000000000000      0x1df CMakeFiles/kiibohd.elf.dir/Debug/print/print.c.o
 .debug_macro   0x0000000000000000       0x76 CMakeFiles/kiibohd.elf.dir/Debug/print/print.c.o
 .debug_macro   0x0000000000000000       0x10 CMakeFiles/kiibohd.elf.dir/Debug/print/print.c.o
 .debug_macro   0x0000000000000000       0x9a CMakeFiles/kiibohd.elf.dir/Debug/print/print.c.o

Memory Configuration

Name             Origin             Length             Attributes
FLASH            0x0000000000002000 0x000000000003e000 xr
RAM              0x000000001fff8000 0x0000000000010000 xrw
*default*        0x0000000000000000 0xffffffffffffffff

Linker script and memory map

LOAD CMakeFiles/kiibohd.elf.dir/main.c.o
LOAD CMakeFiles/kiibohd.elf.dir/Lib/mk20dx.c.o
LOAD CMakeFiles/kiibohd.elf.dir/Lib/delay.c.o
LOAD CMakeFiles/kiibohd.elf.dir/Scan/ISSILed/led_scan.c.o
LOAD CMakeFiles/kiibohd.elf.dir/Scan/MatrixARM/matrix_scan.c.o
LOAD CMakeFiles/kiibohd.elf.dir/Scan/STLcd/lcd_scan.c.o
LOAD CMakeFiles/kiibohd.elf.dir/Scan/UARTConnect/connect_scan.c.o
LOAD CMakeFiles/kiibohd.elf.dir/Scan/MDErgo1-CustomLogo/scan_loop.c.o
LOAD CMakeFiles/kiibohd.elf.dir/Macro/PartialMap/macro.c.o
LOAD CMakeFiles/kiibohd.elf.dir/Macro/PartialMap/result.c.o
LOAD CMakeFiles/kiibohd.elf.dir/Macro/PartialMap/trigger.c.o
LOAD CMakeFiles/kiibohd.elf.dir/Output/pjrcUSB/output_com.c.o
LOAD CMakeFiles/kiibohd.elf.dir/Output/pjrcUSB/arm/usb_desc.c.o
LOAD CMakeFiles/kiibohd.elf.dir/Output/pjrcUSB/arm/usb_dev.c.o
LOAD CMakeFiles/kiibohd.elf.dir/Output/pjrcUSB/arm/usb_joystick.c.o
LOAD CMakeFiles/kiibohd.elf.dir/Output/pjrcUSB/arm/usb_keyboard.c.o
LOAD CMakeFiles/kiibohd.elf.dir/Output/pjrcUSB/arm/usb_mem.c.o
LOAD CMakeFiles/kiibohd.elf.dir/Output/pjrcUSB/arm/usb_mouse.c.o
LOAD CMakeFiles/kiibohd.elf.dir/Output/pjrcUSB/arm/usb_serial.c.o
LOAD CMakeFiles/kiibohd.elf.dir/Debug/cli/cli.c.o
LOAD CMakeFiles/kiibohd.elf.dir/Debug/led/led.c.o
LOAD CMakeFiles/kiibohd.elf.dir/Debug/print/print.c.o

.text           0x0000000000002000     0xa6f4
                0x0000000000000000                . = 0x0
 *(.vectors)
 .vectors       0x0000000000002000      0x1bc CMakeFiles/kiibohd.elf.dir/Lib/mk20dx.c.o
                0x0000000000002000                gVectors
 *(.startup*)
 .startup       0x00000000000021bc      0x14c CMakeFiles/kiibohd.elf.dir/Lib/mk20dx.c.o
                0x00000000000021bc                ResetHandler
                0x0000000000000400                . = 0x400
 *fill*         0x0000000000002308       0xf8 
 *(.flashconfig)
 *(.text*)
 .text.startup.main
                0x0000000000002400       0x2c CMakeFiles/kiibohd.elf.dir/main.c.o
                0x0000000000002400                main
 .text.systick_default_isr
                0x000000000000242c       0x10 CMakeFiles/kiibohd.elf.dir/Lib/mk20dx.c.o
                0x000000000000242c                systick_isr
                0x000000000000242c                systick_default_isr
 .text.fault_isr
                0x000000000000243c       0x3c CMakeFiles/kiibohd.elf.dir/Lib/mk20dx.c.o
                0x000000000000243c                fault_isr
 .text.unused_isr
                0x0000000000002478        0x6 CMakeFiles/kiibohd.elf.dir/Lib/mk20dx.c.o
                0x0000000000002478                dma_ch0_isr
                0x0000000000002478                dma_ch6_isr
                0x0000000000002478                uart0_lon_isr
                0x0000000000002478                dma_ch8_isr
                0x0000000000002478                dma_error_isr
                0x0000000000002478                portd_isr
                0x0000000000002478                porte_isr
                0x0000000000002478                portb_isr
                0x0000000000002478                spi1_isr
                0x0000000000002478                uart3_status_isr
                0x0000000000002478                mcm_isr
                0x0000000000002478                uart1_status_isr
                0x0000000000002478                watchdog_isr
                0x0000000000002478                i2c1_isr
                0x0000000000002478                dma_ch11_isr
                0x0000000000002478                i2c2_isr
                0x0000000000002478                pit1_isr
                0x0000000000002478                dma_ch4_isr
                0x0000000000002478                software_isr
                0x0000000000002478                dma_ch7_isr
                0x0000000000002478                lptmr_isr
                0x0000000000002478                ftm2_isr
                0x0000000000002478                uart5_status_isr
                0x0000000000002478                dma_ch9_isr
                0x0000000000002478                pit2_isr
                0x0000000000002478                pit0_isr
                0x0000000000002478                can0_wakeup_isr
                0x0000000000002478                flash_cmd_isr
                0x0000000000002478                uart2_status_isr
                0x0000000000002478                svcall_isr
                0x0000000000002478                dma_ch15_isr
                0x0000000000002478                uart1_error_isr
                0x0000000000002478                unused_isr
                0x0000000000002478                spi0_isr
                0x0000000000002478                dma_ch3_isr
                0x0000000000002478                flash_error_isr
                0x0000000000002478                uart5_error_isr
                0x0000000000002478                rtc_seconds_isr
                0x0000000000002478                pdb_isr
                0x0000000000002478                dac1_isr
                0x0000000000002478                dma_ch14_isr
                0x0000000000002478                rtc_alarm_isr
                0x0000000000002478                dma_ch2_isr
                0x0000000000002478                ftm1_isr
                0x0000000000002478                dma_ch13_isr
                0x0000000000002478                uart2_error_isr
                0x0000000000002478                usb_charge_isr
                0x0000000000002478                cmt_isr
                0x0000000000002478                ftm3_isr
                0x0000000000002478                tsi0_isr
                0x0000000000002478                spi2_isr
                0x0000000000002478                can0_bus_off_isr
                0x0000000000002478                uart3_error_isr
                0x0000000000002478                porta_isr
                0x0000000000002478                low_voltage_isr
                0x0000000000002478                can0_error_isr
                0x0000000000002478                dma_ch12_isr
                0x0000000000002478                pit3_isr
                0x0000000000002478                portc_isr
                0x0000000000002478                debugmonitor_isr
                0x0000000000002478                cmp1_isr
                0x0000000000002478                ftm0_isr
                0x0000000000002478                i2s0_rx_isr
                0x0000000000002478                uart4_error_isr
                0x0000000000002478                can0_message_isr
                0x0000000000002478                sdhc_isr
                0x0000000000002478                dma_ch10_isr
                0x0000000000002478                uart0_error_isr
                0x0000000000002478                i2s0_tx_isr
                0x0000000000002478                adc1_isr
                0x0000000000002478                cmp0_isr
                0x0000000000002478                dac0_isr
                0x0000000000002478                uart0_status_isr
                0x0000000000002478                mcg_isr
                0x0000000000002478                dma_ch1_isr
                0x0000000000002478                dma_ch5_isr
                0x0000000000002478                can0_rx_warn_isr
                0x0000000000002478                can0_tx_warn_isr
                0x0000000000002478                uart4_status_isr
                0x0000000000002478                cmp2_isr
                0x0000000000002478                pendablesrvreq_isr
                0x0000000000002478                wakeup_isr
                0x0000000000002478                adc0_isr
 *fill*         0x000000000000247e        0x2 
 .text.nmi_default_isr
                0x0000000000002480        0xc CMakeFiles/kiibohd.elf.dir/Lib/mk20dx.c.o
                0x0000000000002480                nmi_isr
                0x0000000000002480                nmi_default_isr
 .text.hard_fault_default_isr
                0x000000000000248c       0x34 CMakeFiles/kiibohd.elf.dir/Lib/mk20dx.c.o
                0x000000000000248c                hard_fault_isr
                0x000000000000248c                hard_fault_default_isr
 .text.memmanage_fault_default_isr
                0x00000000000024c0       0x40 CMakeFiles/kiibohd.elf.dir/Lib/mk20dx.c.o
                0x00000000000024c0                memmanage_fault_default_isr
                0x00000000000024c0                memmanage_fault_isr
 .text.bus_fault_default_isr
                0x0000000000002500       0x40 CMakeFiles/kiibohd.elf.dir/Lib/mk20dx.c.o
                0x0000000000002500                bus_fault_isr
                0x0000000000002500                bus_fault_default_isr
 .text.usage_fault_default_isr
                0x0000000000002540       0x28 CMakeFiles/kiibohd.elf.dir/Lib/mk20dx.c.o
                0x0000000000002540                usage_fault_default_isr
                0x0000000000002540                usage_fault_isr
 .text.memset   0x0000000000002568       0x10 CMakeFiles/kiibohd.elf.dir/Lib/mk20dx.c.o
                0x0000000000002568                memset
 .text.memcpy   0x0000000000002578       0x18 CMakeFiles/kiibohd.elf.dir/Lib/mk20dx.c.o
                0x0000000000002578                memcpy
 .text.yield    0x0000000000002590        0x2 CMakeFiles/kiibohd.elf.dir/Lib/delay.c.o
                0x0000000000002590                yield
 *fill*         0x0000000000002592        0x2 
 .text.micros   0x0000000000002594       0x44 CMakeFiles/kiibohd.elf.dir/Lib/delay.c.o
                0x0000000000002594                micros
 .text.delay    0x00000000000025d8       0x26 CMakeFiles/kiibohd.elf.dir/Lib/delay.c.o
                0x00000000000025d8                delay
 .text.I2C_BufferLen
                0x00000000000025fe       0x14 CMakeFiles/kiibohd.elf.dir/Scan/ISSILed/led_scan.c.o
                0x00000000000025fe                I2C_BufferLen
 *fill*         0x0000000000002612        0x2 
 .text.I2C_BufferPush
                0x0000000000002614       0x60 CMakeFiles/kiibohd.elf.dir/Scan/ISSILed/led_scan.c.o
                0x0000000000002614                I2C_BufferPush
 .text.I2C_TxBufferPop
                0x0000000000002674       0xa4 CMakeFiles/kiibohd.elf.dir/Scan/ISSILed/led_scan.c.o
                0x0000000000002674                I2C_TxBufferPop
 .text.i2c0_isr
                0x0000000000002718      0x118 CMakeFiles/kiibohd.elf.dir/Scan/ISSILed/led_scan.c.o
                0x0000000000002718                i2c0_isr
 .text.I2C_Send
                0x0000000000002830       0xe0 CMakeFiles/kiibohd.elf.dir/Scan/ISSILed/led_scan.c.o
                0x0000000000002830                I2C_Send
 .text.LED_zeroPages
                0x0000000000002910       0x74 CMakeFiles/kiibohd.elf.dir/Scan/ISSILed/led_scan.c.o
                0x0000000000002910                LED_zeroPages
 .text.cliFunc_ledZero
                0x0000000000002984       0x1c CMakeFiles/kiibohd.elf.dir/Scan/ISSILed/led_scan.c.o
                0x0000000000002984                cliFunc_ledZero
 .text.LED_sendPage
                0x00000000000029a0       0x42 CMakeFiles/kiibohd.elf.dir/Scan/ISSILed/led_scan.c.o
                0x00000000000029a0                LED_sendPage
 *fill*         0x00000000000029e2        0x2 
 .text.cliFunc_ledTest
                0x00000000000029e4       0x20 CMakeFiles/kiibohd.elf.dir/Scan/ISSILed/led_scan.c.o
                0x00000000000029e4                cliFunc_ledTest
 .text.LED_writeReg
                0x0000000000002a04       0x4a CMakeFiles/kiibohd.elf.dir/Scan/ISSILed/led_scan.c.o
                0x0000000000002a04                LED_writeReg
 *fill*         0x0000000000002a4e        0x2 
 .text.LED_setup
                0x0000000000002a50       0xc4 CMakeFiles/kiibohd.elf.dir/Scan/ISSILed/led_scan.c.o
                0x0000000000002a50                LED_setup
 .text.cliFunc_ledStart
                0x0000000000002b14       0x34 CMakeFiles/kiibohd.elf.dir/Scan/ISSILed/led_scan.c.o
                0x0000000000002b14                cliFunc_ledStart
 .text.LED_readPage
                0x0000000000002b48       0x98 CMakeFiles/kiibohd.elf.dir/Scan/ISSILed/led_scan.c.o
                0x0000000000002b48                LED_readPage
 .text.cliFunc_ledRPage
                0x0000000000002be0       0x2c CMakeFiles/kiibohd.elf.dir/Scan/ISSILed/led_scan.c.o
                0x0000000000002be0                cliFunc_ledRPage
 .text.cliFunc_i2cSend
                0x0000000000002c0c       0x88 CMakeFiles/kiibohd.elf.dir/Scan/ISSILed/led_scan.c.o
                0x0000000000002c0c                cliFunc_i2cSend
 .text.cliFunc_i2cRecv
                0x0000000000002c94       0x88 CMakeFiles/kiibohd.elf.dir/Scan/ISSILed/led_scan.c.o
                0x0000000000002c94                cliFunc_i2cRecv
 .text.cliFunc_ledWPage
                0x0000000000002d1c       0x9a CMakeFiles/kiibohd.elf.dir/Scan/ISSILed/led_scan.c.o
                0x0000000000002d1c                cliFunc_ledWPage
 *fill*         0x0000000000002db6        0x2 
 .text.LED_scan
                0x0000000000002db8       0x28 CMakeFiles/kiibohd.elf.dir/Scan/ISSILed/led_scan.c.o
                0x0000000000002db8                LED_scan
 .text.LED_currentChange
                0x0000000000002de0        0xc CMakeFiles/kiibohd.elf.dir/Scan/ISSILed/led_scan.c.o
                0x0000000000002de0                LED_currentChange
 .text.LED_control
                0x0000000000002dec       0x98 CMakeFiles/kiibohd.elf.dir/Scan/ISSILed/led_scan.c.o
                0x0000000000002dec                LED_control
 .text.cliFunc_ledCtrl
                0x0000000000002e84       0x5c CMakeFiles/kiibohd.elf.dir/Scan/ISSILed/led_scan.c.o
                0x0000000000002e84                cliFunc_ledCtrl
 .text.LED_control_capability
                0x0000000000002ee0       0x98 CMakeFiles/kiibohd.elf.dir/Scan/ISSILed/led_scan.c.o
                0x0000000000002ee0                LED_control_capability
 .text.cliFunc_matrixInfo
                0x0000000000002f78       0x54 CMakeFiles/kiibohd.elf.dir/Scan/MatrixARM/matrix_scan.c.o
                0x0000000000002f78                cliFunc_matrixInfo
 .text.cliFunc_matrixState
                0x0000000000002fcc       0x24 CMakeFiles/kiibohd.elf.dir/Scan/MatrixARM/matrix_scan.c.o
                0x0000000000002fcc                cliFunc_matrixState
 .text.cliFunc_matrixDebug
                0x0000000000002ff0       0x5c CMakeFiles/kiibohd.elf.dir/Scan/MatrixARM/matrix_scan.c.o
                0x0000000000002ff0                cliFunc_matrixDebug
 .text.Matrix_pin
                0x000000000000304c       0xc8 CMakeFiles/kiibohd.elf.dir/Scan/MatrixARM/matrix_scan.c.o
                0x000000000000304c                Matrix_pin
 .text.Matrix_setup
                0x0000000000003114       0x98 CMakeFiles/kiibohd.elf.dir/Scan/MatrixARM/matrix_scan.c.o
                0x0000000000003114                Matrix_setup
 .text.Matrix_keyPositionDebug
                0x00000000000031ac       0x38 CMakeFiles/kiibohd.elf.dir/Scan/MatrixARM/matrix_scan.c.o
                0x00000000000031ac                Matrix_keyPositionDebug
 .text.Matrix_scan
                0x00000000000031e4      0x2cc CMakeFiles/kiibohd.elf.dir/Scan/MatrixARM/matrix_scan.c.o
                0x00000000000031e4                Matrix_scan
 .text.Matrix_currentChange
                0x00000000000034b0        0x2 CMakeFiles/kiibohd.elf.dir/Scan/MatrixARM/matrix_scan.c.o
                0x00000000000034b0                Matrix_currentChange
 *fill*         0x00000000000034b2        0x2 
 .text.cliFunc_lcdColor
                0x00000000000034b4       0x44 CMakeFiles/kiibohd.elf.dir/Scan/STLcd/lcd_scan.c.o
                0x00000000000034b4                cliFunc_lcdColor
 .text.SPI_write
                0x00000000000034f8       0x48 CMakeFiles/kiibohd.elf.dir/Scan/STLcd/lcd_scan.c.o
                0x00000000000034f8                SPI_write
 .text.LCD_writeControlReg
                0x0000000000003540       0x50 CMakeFiles/kiibohd.elf.dir/Scan/STLcd/lcd_scan.c.o
                0x0000000000003540                LCD_writeControlReg
 .text.cliFunc_lcdCmd
                0x0000000000003590       0x50 CMakeFiles/kiibohd.elf.dir/Scan/STLcd/lcd_scan.c.o
                0x0000000000003590                cliFunc_lcdCmd
 .text.cliFunc_lcdDisp
                0x00000000000035e0       0x76 CMakeFiles/kiibohd.elf.dir/Scan/STLcd/lcd_scan.c.o
                0x00000000000035e0                cliFunc_lcdDisp
 .text.LCD_writeDisplayReg
                0x0000000000003656       0x30 CMakeFiles/kiibohd.elf.dir/Scan/STLcd/lcd_scan.c.o
                0x0000000000003656                LCD_writeDisplayReg
 *fill*         0x0000000000003686        0x2 
 .text.cliFunc_lcdTest
                0x0000000000003688       0x20 CMakeFiles/kiibohd.elf.dir/Scan/STLcd/lcd_scan.c.o
                0x0000000000003688                cliFunc_lcdTest
 .text.LCD_clear
                0x00000000000036a8       0x68 CMakeFiles/kiibohd.elf.dir/Scan/STLcd/lcd_scan.c.o
                0x00000000000036a8                LCD_clear
 .text.LCD_initialize
                0x0000000000003710       0x46 CMakeFiles/kiibohd.elf.dir/Scan/STLcd/lcd_scan.c.o
                0x0000000000003710                LCD_initialize
 .text.cliFunc_lcdInit
                0x0000000000003756        0x4 CMakeFiles/kiibohd.elf.dir/Scan/STLcd/lcd_scan.c.o
                0x0000000000003756                cliFunc_lcdInit
 *fill*         0x000000000000375a        0x2 
 .text.LCD_setup
                0x000000000000375c      0x114 CMakeFiles/kiibohd.elf.dir/Scan/STLcd/lcd_scan.c.o
                0x000000000000375c                LCD_setup
 .text.LCD_scan
                0x0000000000003870        0x4 CMakeFiles/kiibohd.elf.dir/Scan/STLcd/lcd_scan.c.o
                0x0000000000003870                LCD_scan
 .text.LCD_currentChange
                0x0000000000003874        0x2 CMakeFiles/kiibohd.elf.dir/Scan/STLcd/lcd_scan.c.o
                0x0000000000003874                LCD_currentChange
 *fill*         0x0000000000003876        0x2 
 .text.LCD_layerStackExact_capability
                0x0000000000003878      0x118 CMakeFiles/kiibohd.elf.dir/Scan/STLcd/lcd_scan.c.o
                0x0000000000003878                LCD_layerStackExact_capability
 .text.LCD_layerStack_capability
                0x0000000000003990       0xb8 CMakeFiles/kiibohd.elf.dir/Scan/STLcd/lcd_scan.c.o
                0x0000000000003990                LCD_layerStack_capability
 .text.Connect_receive_Animation
                0x0000000000003a48       0x10 CMakeFiles/kiibohd.elf.dir/Scan/UARTConnect/connect_scan.c.o
                0x0000000000003a48                Connect_receive_Animation
 .text.cliFunc_connectDbg
                0x0000000000003a58       0x28 CMakeFiles/kiibohd.elf.dir/Scan/UARTConnect/connect_scan.c.o
                0x0000000000003a58                cliFunc_connectDbg
 .text.Connect_receive_CableCheck
                0x0000000000003a80      0x134 CMakeFiles/kiibohd.elf.dir/Scan/UARTConnect/connect_scan.c.o
                0x0000000000003a80                Connect_receive_CableCheck
 .text.cliFunc_connectLst
                0x0000000000003bb4       0x58 CMakeFiles/kiibohd.elf.dir/Scan/UARTConnect/connect_scan.c.o
                0x0000000000003bb4                cliFunc_connectLst
 .text.cliFunc_connectSts
                0x0000000000003c0c      0x148 CMakeFiles/kiibohd.elf.dir/Scan/UARTConnect/connect_scan.c.o
                0x0000000000003c0c                cliFunc_connectSts
 .text.cliFunc_connectMst
                0x0000000000003d54       0x70 CMakeFiles/kiibohd.elf.dir/Scan/UARTConnect/connect_scan.c.o
                0x0000000000003d54                cliFunc_connectMst
 .text.Connect_addBytes.part.1
                0x0000000000003dc4       0xc0 CMakeFiles/kiibohd.elf.dir/Scan/UARTConnect/connect_scan.c.o
 .text.Connect_receive_ScanCode
                0x0000000000003e84      0x178 CMakeFiles/kiibohd.elf.dir/Scan/UARTConnect/connect_scan.c.o
                0x0000000000003e84                Connect_receive_ScanCode
 .text.Connect_addBytes
                0x0000000000003ffc       0x20 CMakeFiles/kiibohd.elf.dir/Scan/UARTConnect/connect_scan.c.o
                0x0000000000003ffc                Connect_addBytes
 .text.Connect_receive_RemoteCapability
                0x000000000000401c      0x114 CMakeFiles/kiibohd.elf.dir/Scan/UARTConnect/connect_scan.c.o
                0x000000000000401c                Connect_receive_RemoteCapability
 .text.Connect_send_CableCheck
                0x0000000000004130       0x8c CMakeFiles/kiibohd.elf.dir/Scan/UARTConnect/connect_scan.c.o
                0x0000000000004130                Connect_send_CableCheck
 .text.Connect_send_IdRequest
                0x00000000000041bc       0x40 CMakeFiles/kiibohd.elf.dir/Scan/UARTConnect/connect_scan.c.o
                0x00000000000041bc                Connect_send_IdRequest
 .text.Connect_send_IdEnumeration
                0x00000000000041fc       0x44 CMakeFiles/kiibohd.elf.dir/Scan/UARTConnect/connect_scan.c.o
                0x00000000000041fc                Connect_send_IdEnumeration
 .text.Connect_receive_IdRequest
                0x0000000000004240       0x38 CMakeFiles/kiibohd.elf.dir/Scan/UARTConnect/connect_scan.c.o
                0x0000000000004240                Connect_receive_IdRequest
 .text.Connect_send_IdReport
                0x0000000000004278       0x44 CMakeFiles/kiibohd.elf.dir/Scan/UARTConnect/connect_scan.c.o
                0x0000000000004278                Connect_send_IdReport
 .text.Connect_receive_IdEnumeration
                0x00000000000042bc       0x4c CMakeFiles/kiibohd.elf.dir/Scan/UARTConnect/connect_scan.c.o
                0x00000000000042bc                Connect_receive_IdEnumeration
 .text.Connect_receive_IdReport
                0x0000000000004308       0x60 CMakeFiles/kiibohd.elf.dir/Scan/UARTConnect/connect_scan.c.o
                0x0000000000004308                Connect_receive_IdReport
 .text.Connect_send_ScanCode
                0x0000000000004368       0x5c CMakeFiles/kiibohd.elf.dir/Scan/UARTConnect/connect_scan.c.o
                0x0000000000004368                Connect_send_ScanCode
 .text.cliFunc_connectCmd
                0x00000000000043c4       0x68 CMakeFiles/kiibohd.elf.dir/Scan/UARTConnect/connect_scan.c.o
                0x00000000000043c4                cliFunc_connectCmd
 .text.Connect_send_RemoteCapability
                0x000000000000442c       0xc0 CMakeFiles/kiibohd.elf.dir/Scan/UARTConnect/connect_scan.c.o
                0x000000000000442c                Connect_send_RemoteCapability
 .text.Connect_send_Idle
                0x00000000000044ec       0x64 CMakeFiles/kiibohd.elf.dir/Scan/UARTConnect/connect_scan.c.o
                0x00000000000044ec                Connect_send_Idle
 .text.cliFunc_connectIdl
                0x0000000000004550       0x38 CMakeFiles/kiibohd.elf.dir/Scan/UARTConnect/connect_scan.c.o
                0x0000000000004550                cliFunc_connectIdl
 .text.Connect_reset
                0x0000000000004588       0x48 CMakeFiles/kiibohd.elf.dir/Scan/UARTConnect/connect_scan.c.o
                0x0000000000004588                Connect_reset
 .text.cliFunc_connectRst
                0x00000000000045d0       0x28 CMakeFiles/kiibohd.elf.dir/Scan/UARTConnect/connect_scan.c.o
                0x00000000000045d0                cliFunc_connectRst
 .text.Connect_setup
                0x00000000000045f8      0x1c0 CMakeFiles/kiibohd.elf.dir/Scan/UARTConnect/connect_scan.c.o
                0x00000000000045f8                Connect_setup
 .text.Connect_rx_process
                0x00000000000047b8      0x1b8 CMakeFiles/kiibohd.elf.dir/Scan/UARTConnect/connect_scan.c.o
                0x00000000000047b8                Connect_rx_process
 .text.Connect_scan
                0x0000000000004970      0x1e0 CMakeFiles/kiibohd.elf.dir/Scan/UARTConnect/connect_scan.c.o
                0x0000000000004970                Connect_scan
 .text.Connect_currentChange
                0x0000000000004b50        0x2 CMakeFiles/kiibohd.elf.dir/Scan/UARTConnect/connect_scan.c.o
                0x0000000000004b50                Connect_currentChange
 *fill*         0x0000000000004b52        0x2 
 .text.Scan_setup
                0x0000000000004b54       0x28 CMakeFiles/kiibohd.elf.dir/Scan/MDErgo1-CustomLogo/scan_loop.c.o
                0x0000000000004b54                Scan_setup
 .text.Scan_loop
                0x0000000000004b7c       0x24 CMakeFiles/kiibohd.elf.dir/Scan/MDErgo1-CustomLogo/scan_loop.c.o
                0x0000000000004b7c                Scan_loop
 .text.Scan_finishedWithMacro
                0x0000000000004ba0        0x2 CMakeFiles/kiibohd.elf.dir/Scan/MDErgo1-CustomLogo/scan_loop.c.o
                0x0000000000004ba0                Scan_finishedWithMacro
 *fill*         0x0000000000004ba2        0x2 
 .text.Scan_finishedWithOutput
                0x0000000000004ba4        0xc CMakeFiles/kiibohd.elf.dir/Scan/MDErgo1-CustomLogo/scan_loop.c.o
                0x0000000000004ba4                Scan_finishedWithOutput
 .text.Scan_currentChange
                0x0000000000004bb0       0x1e CMakeFiles/kiibohd.elf.dir/Scan/MDErgo1-CustomLogo/scan_loop.c.o
                0x0000000000004bb0                Scan_currentChange
 *fill*         0x0000000000004bce        0x2 
 .text.cliFunc_capList
                0x0000000000004bd0       0x58 CMakeFiles/kiibohd.elf.dir/Macro/PartialMap/macro.c.o
                0x0000000000004bd0                cliFunc_capList
 .text.cliFunc_macroStep
                0x0000000000004c28       0x28 CMakeFiles/kiibohd.elf.dir/Macro/PartialMap/macro.c.o
                0x0000000000004c28                cliFunc_macroStep
 .text.cliFunc_capSelect
                0x0000000000004c50      0x104 CMakeFiles/kiibohd.elf.dir/Macro/PartialMap/macro.c.o
                0x0000000000004c50                cliFunc_capSelect
 .text.cliFunc_layerDebug
                0x0000000000004d54       0x30 CMakeFiles/kiibohd.elf.dir/Macro/PartialMap/macro.c.o
                0x0000000000004d54                cliFunc_layerDebug
 .text.cliFunc_layerState
                0x0000000000004d84       0x68 CMakeFiles/kiibohd.elf.dir/Macro/PartialMap/macro.c.o
                0x0000000000004d84                cliFunc_layerState
 .text.cliFunc_macroDebug
                0x0000000000004dec       0x30 CMakeFiles/kiibohd.elf.dir/Macro/PartialMap/macro.c.o
                0x0000000000004dec                cliFunc_macroDebug
 .text.cliFunc_macroProc
                0x0000000000004e1c       0x30 CMakeFiles/kiibohd.elf.dir/Macro/PartialMap/macro.c.o
                0x0000000000004e1c                cliFunc_macroProc
 .text.cliFunc_layerList
                0x0000000000004e4c       0x94 CMakeFiles/kiibohd.elf.dir/Macro/PartialMap/macro.c.o
                0x0000000000004e4c                cliFunc_layerList
 .text.cliFunc_macroList
                0x0000000000004ee0      0x160 CMakeFiles/kiibohd.elf.dir/Macro/PartialMap/macro.c.o
                0x0000000000004ee0                cliFunc_macroList
 .text.Macro_layerState
                0x0000000000005040       0xd0 CMakeFiles/kiibohd.elf.dir/Macro/PartialMap/macro.c.o
                0x0000000000005040                Macro_layerState
 .text.Macro_layerState_capability
                0x0000000000005110       0x24 CMakeFiles/kiibohd.elf.dir/Macro/PartialMap/macro.c.o
                0x0000000000005110                Macro_layerState_capability
 .text.Macro_layerLatch_capability
                0x0000000000005134       0x24 CMakeFiles/kiibohd.elf.dir/Macro/PartialMap/macro.c.o
                0x0000000000005134                Macro_layerLatch_capability
 .text.Macro_layerLock_capability
                0x0000000000005158       0x24 CMakeFiles/kiibohd.elf.dir/Macro/PartialMap/macro.c.o
                0x0000000000005158                Macro_layerLock_capability
 .text.Macro_layerShift_capability
                0x000000000000517c       0x24 CMakeFiles/kiibohd.elf.dir/Macro/PartialMap/macro.c.o
                0x000000000000517c                Macro_layerShift_capability
 .text.Macro_layerRotate_capability
                0x00000000000051a0       0x70 CMakeFiles/kiibohd.elf.dir/Macro/PartialMap/macro.c.o
                0x00000000000051a0                Macro_layerRotate_capability
 .text.Macro_layerLookup
                0x0000000000005210      0x128 CMakeFiles/kiibohd.elf.dir/Macro/PartialMap/macro.c.o
                0x0000000000005210                Macro_layerLookup
 .text.Macro_interconnectAdd
                0x0000000000005338       0xb8 CMakeFiles/kiibohd.elf.dir/Macro/PartialMap/macro.c.o
                0x0000000000005338                Macro_interconnectAdd
 .text.Macro_keyState
                0x00000000000053f0       0x60 CMakeFiles/kiibohd.elf.dir/Macro/PartialMap/macro.c.o
                0x00000000000053f0                Macro_keyState
 .text.cliFunc_keyHold
                0x0000000000005450       0x2e CMakeFiles/kiibohd.elf.dir/Macro/PartialMap/macro.c.o
                0x0000000000005450                cliFunc_keyHold
 .text.cliFunc_keyPress
                0x000000000000547e       0x2e CMakeFiles/kiibohd.elf.dir/Macro/PartialMap/macro.c.o
                0x000000000000547e                cliFunc_keyPress
 .text.cliFunc_keyRelease
                0x00000000000054ac       0x2e CMakeFiles/kiibohd.elf.dir/Macro/PartialMap/macro.c.o
                0x00000000000054ac                cliFunc_keyRelease
 *fill*         0x00000000000054da        0x2 
 .text.Macro_appendResultMacroToPendingList
                0x00000000000054dc       0x94 CMakeFiles/kiibohd.elf.dir/Macro/PartialMap/macro.c.o
                0x00000000000054dc                Macro_appendResultMacroToPendingList
 .text.Macro_process
                0x0000000000005570       0xf4 CMakeFiles/kiibohd.elf.dir/Macro/PartialMap/macro.c.o
                0x0000000000005570                Macro_process
 .text.Macro_setup
                0x0000000000005664       0x48 CMakeFiles/kiibohd.elf.dir/Macro/PartialMap/macro.c.o
                0x0000000000005664                Macro_setup
 .text.macroDebugShowTrigger
                0x00000000000056ac      0x110 CMakeFiles/kiibohd.elf.dir/Macro/PartialMap/macro.c.o
                0x00000000000056ac                macroDebugShowTrigger
 .text.macroDebugShowResult
                0x00000000000057bc      0x174 CMakeFiles/kiibohd.elf.dir/Macro/PartialMap/macro.c.o
                0x00000000000057bc                macroDebugShowResult
 .text.cliFunc_macroShow
                0x0000000000005930       0x3e CMakeFiles/kiibohd.elf.dir/Macro/PartialMap/macro.c.o
                0x0000000000005930                cliFunc_macroShow
 *fill*         0x000000000000596e        0x2 
 .text.Result_setup
                0x0000000000005970       0x1c CMakeFiles/kiibohd.elf.dir/Macro/PartialMap/result.c.o
                0x0000000000005970                Result_setup
 .text.Result_process
                0x000000000000598c       0xb0 CMakeFiles/kiibohd.elf.dir/Macro/PartialMap/result.c.o
                0x000000000000598c                Result_process
 .text.Macro_evalTriggerMacro
                0x0000000000005a3c      0x260 CMakeFiles/kiibohd.elf.dir/Macro/PartialMap/trigger.c.o
                0x0000000000005a3c                Macro_evalTriggerMacro
 .text.Trigger_setup
                0x0000000000005c9c       0x1c CMakeFiles/kiibohd.elf.dir/Macro/PartialMap/trigger.c.o
                0x0000000000005c9c                Trigger_setup
 .text.Trigger_process
                0x0000000000005cb8       0xf8 CMakeFiles/kiibohd.elf.dir/Macro/PartialMap/trigger.c.o
                0x0000000000005cb8                Trigger_process
 .text.cliFunc_sendKeys
                0x0000000000005db0       0x24 CMakeFiles/kiibohd.elf.dir/Output/pjrcUSB/output_com.c.o
                0x0000000000005db0                cliFunc_sendKeys
 .text.cliFunc_kbdProtocol
                0x0000000000005dd4       0x28 CMakeFiles/kiibohd.elf.dir/Output/pjrcUSB/output_com.c.o
                0x0000000000005dd4                cliFunc_kbdProtocol
 .text.cliFunc_readLEDs
                0x0000000000005dfc       0x28 CMakeFiles/kiibohd.elf.dir/Output/pjrcUSB/output_com.c.o
                0x0000000000005dfc                cliFunc_readLEDs
 .text.cliFunc_setKeys
                0x0000000000005e24       0x34 CMakeFiles/kiibohd.elf.dir/Output/pjrcUSB/output_com.c.o
                0x0000000000005e24                cliFunc_setKeys
 .text.cliFunc_outputDebug
                0x0000000000005e58       0x24 CMakeFiles/kiibohd.elf.dir/Output/pjrcUSB/output_com.c.o
                0x0000000000005e58                cliFunc_outputDebug
 .text.cliFunc_setMod
                0x0000000000005e7c       0x20 CMakeFiles/kiibohd.elf.dir/Output/pjrcUSB/output_com.c.o
                0x0000000000005e7c                cliFunc_setMod
 .text.Output_consCtrlSend_capability
                0x0000000000005e9c       0x58 CMakeFiles/kiibohd.elf.dir/Output/pjrcUSB/output_com.c.o
                0x0000000000005e9c                Output_consCtrlSend_capability
 .text.Output_noneSend_capability
                0x0000000000005ef4       0x14 CMakeFiles/kiibohd.elf.dir/Output/pjrcUSB/output_com.c.o
                0x0000000000005ef4                Output_noneSend_capability
 .text.Output_sysCtrlSend_capability
                0x0000000000005f08       0x58 CMakeFiles/kiibohd.elf.dir/Output/pjrcUSB/output_com.c.o
                0x0000000000005f08                Output_sysCtrlSend_capability
 .text.Output_flashMode_capability
                0x0000000000005f60       0x18 CMakeFiles/kiibohd.elf.dir/Output/pjrcUSB/output_com.c.o
                0x0000000000005f60                Output_flashMode_capability
 .text.Output_usbMouse_capability
                0x0000000000005f78       0x84 CMakeFiles/kiibohd.elf.dir/Output/pjrcUSB/output_com.c.o
                0x0000000000005f78                Output_usbMouse_capability
 .text.Output_flushBuffers
                0x0000000000005ffc       0x2c CMakeFiles/kiibohd.elf.dir/Output/pjrcUSB/output_com.c.o
                0x0000000000005ffc                Output_flushBuffers
 .text.Output_kbdProtocolBoot_capability
                0x0000000000006028       0x30 CMakeFiles/kiibohd.elf.dir/Output/pjrcUSB/output_com.c.o
                0x0000000000006028                Output_kbdProtocolBoot_capability
 .text.Output_kbdProtocolNKRO_capability
                0x0000000000006058       0x34 CMakeFiles/kiibohd.elf.dir/Output/pjrcUSB/output_com.c.o
                0x0000000000006058                Output_kbdProtocolNKRO_capability
 .text.Output_usbCodeSend_capability
                0x000000000000608c      0x1cc CMakeFiles/kiibohd.elf.dir/Output/pjrcUSB/output_com.c.o
                0x000000000000608c                Output_usbCodeSend_capability
 .text.Output_setup
                0x0000000000006258       0x20 CMakeFiles/kiibohd.elf.dir/Output/pjrcUSB/output_com.c.o
                0x0000000000006258                Output_setup
 .text.Output_send
                0x0000000000006278       0x74 CMakeFiles/kiibohd.elf.dir/Output/pjrcUSB/output_com.c.o
                0x0000000000006278                Output_send
 .text.Output_availablechar
                0x00000000000062ec        0x4 CMakeFiles/kiibohd.elf.dir/Output/pjrcUSB/output_com.c.o
                0x00000000000062ec                Output_availablechar
 .text.Output_getchar
                0x00000000000062f0        0x4 CMakeFiles/kiibohd.elf.dir/Output/pjrcUSB/output_com.c.o
                0x00000000000062f0                Output_getchar
 .text.Output_putstr
                0x00000000000062f4       0x10 CMakeFiles/kiibohd.elf.dir/Output/pjrcUSB/output_com.c.o
                0x00000000000062f4                Output_putstr
 .text.Output_softReset
                0x0000000000006304       0x10 CMakeFiles/kiibohd.elf.dir/Output/pjrcUSB/output_com.c.o
                0x0000000000006304                Output_softReset
 .text.Output_current_available
                0x0000000000006314       0x18 CMakeFiles/kiibohd.elf.dir/Output/pjrcUSB/output_com.c.o
                0x0000000000006314                Output_current_available
 .text.Output_update_usb_current
                0x000000000000632c       0x20 CMakeFiles/kiibohd.elf.dir/Output/pjrcUSB/output_com.c.o
                0x000000000000632c                Output_update_usb_current
 .text.Output_update_external_current
                0x000000000000634c       0x40 CMakeFiles/kiibohd.elf.dir/Output/pjrcUSB/output_com.c.o
                0x000000000000634c                Output_update_external_current
 .text.endpoint0_transmit
                0x000000000000638c       0x40 CMakeFiles/kiibohd.elf.dir/Output/pjrcUSB/arm/usb_dev.c.o
 .text.usb_rx   0x00000000000063cc       0x38 CMakeFiles/kiibohd.elf.dir/Output/pjrcUSB/arm/usb_dev.c.o
                0x00000000000063cc                usb_rx
 .text.usb_tx_packet_count
                0x0000000000006404       0x24 CMakeFiles/kiibohd.elf.dir/Output/pjrcUSB/arm/usb_dev.c.o
                0x0000000000006404                usb_tx_packet_count
 .text.usb_rx_memory
                0x0000000000006428       0x78 CMakeFiles/kiibohd.elf.dir/Output/pjrcUSB/arm/usb_dev.c.o
                0x0000000000006428                usb_rx_memory
 .text.usb_tx   0x00000000000064a0       0xbc CMakeFiles/kiibohd.elf.dir/Output/pjrcUSB/arm/usb_dev.c.o
                0x00000000000064a0                usb_tx
 .text.usb_device_reload
                0x000000000000655c       0x34 CMakeFiles/kiibohd.elf.dir/Output/pjrcUSB/arm/usb_dev.c.o
                0x000000000000655c                usb_device_reload
 .text.usb_isr  0x0000000000006590      0x80c CMakeFiles/kiibohd.elf.dir/Output/pjrcUSB/arm/usb_dev.c.o
                0x0000000000006590                usb_isr
 .text.usb_init
                0x0000000000006d9c       0xac CMakeFiles/kiibohd.elf.dir/Output/pjrcUSB/arm/usb_dev.c.o
                0x0000000000006d9c                usb_init
 .text.usb_device_check
                0x0000000000006e48       0x54 CMakeFiles/kiibohd.elf.dir/Output/pjrcUSB/arm/usb_dev.c.o
                0x0000000000006e48                usb_device_check
 .text.usb_keyboard_send
                0x0000000000006e9c      0x2c8 CMakeFiles/kiibohd.elf.dir/Output/pjrcUSB/arm/usb_keyboard.c.o
                0x0000000000006e9c                usb_keyboard_send
 .text.usb_malloc
                0x0000000000007164       0x3c CMakeFiles/kiibohd.elf.dir/Output/pjrcUSB/arm/usb_mem.c.o
                0x0000000000007164                usb_malloc
 .text.usb_free
                0x00000000000071a0       0x44 CMakeFiles/kiibohd.elf.dir/Output/pjrcUSB/arm/usb_mem.c.o
                0x00000000000071a0                usb_free
 .text.usb_mouse_send
                0x00000000000071e4       0xa4 CMakeFiles/kiibohd.elf.dir/Output/pjrcUSB/arm/usb_mouse.c.o
                0x00000000000071e4                usb_mouse_send
 .text.usb_serial_getchar
                0x0000000000007288       0x4c CMakeFiles/kiibohd.elf.dir/Output/pjrcUSB/arm/usb_serial.c.o
                0x0000000000007288                usb_serial_getchar
 .text.usb_serial_available
                0x00000000000072d4       0x1c CMakeFiles/kiibohd.elf.dir/Output/pjrcUSB/arm/usb_serial.c.o
                0x00000000000072d4                usb_serial_available
 .text.usb_serial_write
                0x00000000000072f0       0xd0 CMakeFiles/kiibohd.elf.dir/Output/pjrcUSB/arm/usb_serial.c.o
                0x00000000000072f0                usb_serial_write
 .text.usb_serial_flush_callback
                0x00000000000073c0       0x48 CMakeFiles/kiibohd.elf.dir/Output/pjrcUSB/arm/usb_serial.c.o
                0x00000000000073c0                usb_serial_flush_callback
 .text.cliFunc_clear
                0x0000000000007408        0xc CMakeFiles/kiibohd.elf.dir/Debug/cli/cli.c.o
                0x0000000000007408                cliFunc_clear
 .text.cliFunc_reload
                0x0000000000007414       0x24 CMakeFiles/kiibohd.elf.dir/Debug/cli/cli.c.o
                0x0000000000007414                cliFunc_reload
 .text.cliFunc_reset
                0x0000000000007438        0xc CMakeFiles/kiibohd.elf.dir/Debug/cli/cli.c.o
                0x0000000000007438                cliFunc_reset
 .text.cliFunc_help
                0x0000000000007444       0xb0 CMakeFiles/kiibohd.elf.dir/Debug/cli/cli.c.o
                0x0000000000007444                cliFunc_help
 .text.cliFunc_led
                0x00000000000074f4       0x14 CMakeFiles/kiibohd.elf.dir/Debug/cli/cli.c.o
                0x00000000000074f4                cliFunc_led
 .text.cliFunc_restart
                0x0000000000007508        0x4 CMakeFiles/kiibohd.elf.dir/Debug/cli/cli.c.o
                0x0000000000007508                cliFunc_restart
 .text.cliFunc_version
                0x000000000000750c       0xd4 CMakeFiles/kiibohd.elf.dir/Debug/cli/cli.c.o
                0x000000000000750c                cliFunc_version
 .text.cliFunc_cliDebug
                0x00000000000075e0       0x38 CMakeFiles/kiibohd.elf.dir/Debug/cli/cli.c.o
                0x00000000000075e0                cliFunc_cliDebug
 .text.CLI_argumentIsolation
                0x0000000000007618       0x24 CMakeFiles/kiibohd.elf.dir/Debug/cli/cli.c.o
                0x0000000000007618                CLI_argumentIsolation
 .text.CLI_commandLookup
                0x000000000000763c       0xc4 CMakeFiles/kiibohd.elf.dir/Debug/cli/cli.c.o
                0x000000000000763c                CLI_commandLookup
 .text.CLI_registerDictionary
                0x0000000000007700       0x38 CMakeFiles/kiibohd.elf.dir/Debug/cli/cli.c.o
                0x0000000000007700                CLI_registerDictionary
 .text.CLI_init
                0x0000000000007738       0x68 CMakeFiles/kiibohd.elf.dir/Debug/cli/cli.c.o
                0x0000000000007738                CLI_init
 .text.CLI_tabCompletion
                0x00000000000077a0       0xc0 CMakeFiles/kiibohd.elf.dir/Debug/cli/cli.c.o
                0x00000000000077a0                CLI_tabCompletion
 .text.CLI_wrap
                0x0000000000007860       0x28 CMakeFiles/kiibohd.elf.dir/Debug/cli/cli.c.o
                0x0000000000007860                CLI_wrap
 .text.CLI_saveHistory
                0x0000000000007888       0x50 CMakeFiles/kiibohd.elf.dir/Debug/cli/cli.c.o
                0x0000000000007888                CLI_saveHistory
 .text.CLI_retreiveHistory
                0x00000000000078d8       0x50 CMakeFiles/kiibohd.elf.dir/Debug/cli/cli.c.o
                0x00000000000078d8                CLI_retreiveHistory
 .text.CLI_process
                0x0000000000007928      0x214 CMakeFiles/kiibohd.elf.dir/Debug/cli/cli.c.o
                0x0000000000007928                CLI_process
 .text.init_errorLED
                0x0000000000007b3c       0x1c CMakeFiles/kiibohd.elf.dir/Debug/led/led.c.o
                0x0000000000007b3c                init_errorLED
 .text.errorLED
                0x0000000000007b58       0x1c CMakeFiles/kiibohd.elf.dir/Debug/led/led.c.o
                0x0000000000007b58                errorLED
 .text.printstrs
                0x0000000000007b74       0x34 CMakeFiles/kiibohd.elf.dir/Debug/print/print.c.o
                0x0000000000007b74                printstrs
 .text._print   0x0000000000007ba8        0x4 CMakeFiles/kiibohd.elf.dir/Debug/print/print.c.o
                0x0000000000007ba8                _print
 .text.lenStr   0x0000000000007bac       0x12 CMakeFiles/kiibohd.elf.dir/Debug/print/print.c.o
                0x0000000000007bac                lenStr
 .text.revsStr  0x0000000000007bbe       0x20 CMakeFiles/kiibohd.elf.dir/Debug/print/print.c.o
                0x0000000000007bbe                revsStr
 .text.int8ToStr
                0x0000000000007bde       0x28 CMakeFiles/kiibohd.elf.dir/Debug/print/print.c.o
                0x0000000000007bde                int8ToStr
 .text.printInt8
                0x0000000000007c06       0x14 CMakeFiles/kiibohd.elf.dir/Debug/print/print.c.o
                0x0000000000007c06                printInt8
 .text.int16ToStr
                0x0000000000007c1a       0x28 CMakeFiles/kiibohd.elf.dir/Debug/print/print.c.o
                0x0000000000007c1a                int16ToStr
 .text.printInt16
                0x0000000000007c42       0x14 CMakeFiles/kiibohd.elf.dir/Debug/print/print.c.o
                0x0000000000007c42                printInt16
 .text.int32ToStr
                0x0000000000007c56       0x2a CMakeFiles/kiibohd.elf.dir/Debug/print/print.c.o
                0x0000000000007c56                int32ToStr
 .text.printInt32
                0x0000000000007c80       0x14 CMakeFiles/kiibohd.elf.dir/Debug/print/print.c.o
                0x0000000000007c80                printInt32
 .text.hexToStr_op
                0x0000000000007c94       0x58 CMakeFiles/kiibohd.elf.dir/Debug/print/print.c.o
                0x0000000000007c94                hexToStr_op
 .text.printHex_op
                0x0000000000007cec       0x16 CMakeFiles/kiibohd.elf.dir/Debug/print/print.c.o
                0x0000000000007cec                printHex_op
 .text.hex32ToStr_op
                0x0000000000007d02       0x5a CMakeFiles/kiibohd.elf.dir/Debug/print/print.c.o
                0x0000000000007d02                hex32ToStr_op
 .text.printHex32_op
                0x0000000000007d5c       0x16 CMakeFiles/kiibohd.elf.dir/Debug/print/print.c.o
                0x0000000000007d5c                printHex32_op
 .text.eqStr    0x0000000000007d72       0x2a CMakeFiles/kiibohd.elf.dir/Debug/print/print.c.o
                0x0000000000007d72                eqStr
 .text.numToInt
                0x0000000000007d9c       0x84 CMakeFiles/kiibohd.elf.dir/Debug/print/print.c.o
                0x0000000000007d9c                numToInt
 *(.rodata*)
 .rodata.str1.1
                0x0000000000007e20       0x85 CMakeFiles/kiibohd.elf.dir/Lib/mk20dx.c.o
                                         0x91 (size before relaxing)
 .rodata.sys_reset_to_loader_magic
                0x0000000000007ea5       0x16 CMakeFiles/kiibohd.elf.dir/Lib/mk20dx.c.o
                0x0000000000007ea5                sys_reset_to_loader_magic
 .rodata        0x0000000000007ebb        0x3 CMakeFiles/kiibohd.elf.dir/Scan/ISSILed/led_scan.c.o
 .rodata.ledWPageCLIDict_DescEntry
                0x0000000000007ebe       0x4a CMakeFiles/kiibohd.elf.dir/Scan/ISSILed/led_scan.c.o
                0x0000000000007ebe                ledWPageCLIDict_DescEntry
 .rodata.ledTestCLIDict_DescEntry
                0x0000000000007f08       0x18 CMakeFiles/kiibohd.elf.dir/Scan/ISSILed/led_scan.c.o
                0x0000000000007f08                ledTestCLIDict_DescEntry
 .rodata.ledCLIDict
                0x0000000000007f20       0x6c CMakeFiles/kiibohd.elf.dir/Scan/ISSILed/led_scan.c.o
                0x0000000000007f20                ledCLIDict
 .rodata.ledRPageCLIDict_DescEntry
                0x0000000000007f8c       0x1e CMakeFiles/kiibohd.elf.dir/Scan/ISSILed/led_scan.c.o
                0x0000000000007f8c                ledRPageCLIDict_DescEntry
 .rodata.ledStartCLIDict_DescEntry
                0x0000000000007faa       0x1b CMakeFiles/kiibohd.elf.dir/Scan/ISSILed/led_scan.c.o
                0x0000000000007faa                ledStartCLIDict_DescEntry
 .rodata.str1.1
                0x0000000000007fc5      0x1ef CMakeFiles/kiibohd.elf.dir/Scan/ISSILed/led_scan.c.o
                                        0x1f4 (size before relaxing)
 .rodata.ledCtrlCLIDict_DescEntry
                0x00000000000081b4       0x33 CMakeFiles/kiibohd.elf.dir/Scan/ISSILed/led_scan.c.o
                0x00000000000081b4                ledCtrlCLIDict_DescEntry
 .rodata.LED_defaultBrightness1
                0x00000000000081e7       0x92 CMakeFiles/kiibohd.elf.dir/Scan/ISSILed/led_scan.c.o
                0x00000000000081e7                LED_defaultBrightness1
 .rodata.ledZeroCLIDict_DescEntry
                0x0000000000008279       0x31 CMakeFiles/kiibohd.elf.dir/Scan/ISSILed/led_scan.c.o
                0x0000000000008279                ledZeroCLIDict_DescEntry
 .rodata.i2cRecvCLIDict_DescEntry
                0x00000000000082aa       0x79 CMakeFiles/kiibohd.elf.dir/Scan/ISSILed/led_scan.c.o
                0x00000000000082aa                i2cRecvCLIDict_DescEntry
 .rodata.i2cSendCLIDict_DescEntry
                0x0000000000008323       0x44 CMakeFiles/kiibohd.elf.dir/Scan/ISSILed/led_scan.c.o
                0x0000000000008323                i2cSendCLIDict_DescEntry
 .rodata.LED_ledEnableMask1
                0x0000000000008367       0x14 CMakeFiles/kiibohd.elf.dir/Scan/ISSILed/led_scan.c.o
                0x0000000000008367                LED_ledEnableMask1
 .rodata.ledCLIDictName
                0x000000000000837b       0x19 CMakeFiles/kiibohd.elf.dir/Scan/ISSILed/led_scan.c.o
                0x000000000000837b                ledCLIDictName
 .rodata.matrixDebugCLIDict_DescEntry
                0x0000000000008394       0x86 CMakeFiles/kiibohd.elf.dir/Scan/MatrixARM/matrix_scan.c.o
                0x0000000000008394                matrixDebugCLIDict_DescEntry
 .rodata.str1.1
                0x000000000000841a      0x1ce CMakeFiles/kiibohd.elf.dir/Scan/MatrixARM/matrix_scan.c.o
                                        0x1d8 (size before relaxing)
 .rodata.matrixStateCLIDict_DescEntry
                0x00000000000085e8       0x9a CMakeFiles/kiibohd.elf.dir/Scan/MatrixARM/matrix_scan.c.o
                0x00000000000085e8                matrixStateCLIDict_DescEntry
 .rodata.matrixInfoCLIDict_DescEntry
                0x0000000000008682       0x28 CMakeFiles/kiibohd.elf.dir/Scan/MatrixARM/matrix_scan.c.o
                0x0000000000008682                matrixInfoCLIDict_DescEntry
 .rodata.matrixCLIDictName
                0x00000000000086aa       0x17 CMakeFiles/kiibohd.elf.dir/Scan/MatrixARM/matrix_scan.c.o
                0x00000000000086aa                matrixCLIDictName
 *fill*         0x00000000000086c1        0x3 
 .rodata.matrixCLIDict
                0x00000000000086c4       0x30 CMakeFiles/kiibohd.elf.dir/Scan/MatrixARM/matrix_scan.c.o
                0x00000000000086c4                matrixCLIDict
 .rodata        0x00000000000086f4      0x53c CMakeFiles/kiibohd.elf.dir/Scan/STLcd/lcd_scan.c.o
 .rodata.lcdTestCLIDict_DescEntry
                0x0000000000008c30       0x1a CMakeFiles/kiibohd.elf.dir/Scan/STLcd/lcd_scan.c.o
                0x0000000000008c30                lcdTestCLIDict_DescEntry
 .rodata.lcdCLIDictName
                0x0000000000008c4a       0x17 CMakeFiles/kiibohd.elf.dir/Scan/STLcd/lcd_scan.c.o
                0x0000000000008c4a                lcdCLIDictName
 *fill*         0x0000000000008c61        0x3 
 .rodata.lcdCLIDict
                0x0000000000008c64       0x48 CMakeFiles/kiibohd.elf.dir/Scan/STLcd/lcd_scan.c.o
                0x0000000000008c64                lcdCLIDict
 .rodata.str1.1
                0x0000000000008cac       0xa1 CMakeFiles/kiibohd.elf.dir/Scan/STLcd/lcd_scan.c.o
                                         0xa4 (size before relaxing)
 .rodata.lcdCmdCLIDict_DescEntry
                0x0000000000008d4d       0x44 CMakeFiles/kiibohd.elf.dir/Scan/STLcd/lcd_scan.c.o
                0x0000000000008d4d                lcdCmdCLIDict_DescEntry
 .rodata.STLcdDefaultImage
                0x0000000000008d91      0x200 CMakeFiles/kiibohd.elf.dir/Scan/STLcd/lcd_scan.c.o
                0x0000000000008d91                STLcdDefaultImage
 .rodata.lcdColorCLIDict_DescEntry
                0x0000000000008f91       0x45 CMakeFiles/kiibohd.elf.dir/Scan/STLcd/lcd_scan.c.o
                0x0000000000008f91                lcdColorCLIDict_DescEntry
 .rodata.lcdDispCLIDict_DescEntry
                0x0000000000008fd6       0x4e CMakeFiles/kiibohd.elf.dir/Scan/STLcd/lcd_scan.c.o
                0x0000000000008fd6                lcdDispCLIDict_DescEntry
 .rodata.lcdInitCLIDict_DescEntry
                0x0000000000009024       0x1f CMakeFiles/kiibohd.elf.dir/Scan/STLcd/lcd_scan.c.o
                0x0000000000009024                lcdInitCLIDict_DescEntry
 *fill*         0x0000000000009043        0x1 
 .rodata        0x0000000000009044       0x2f CMakeFiles/kiibohd.elf.dir/Scan/UARTConnect/connect_scan.c.o
 *fill*         0x0000000000009073        0x1 
 .rodata.uartConnectCLIDict
                0x0000000000009074       0x60 CMakeFiles/kiibohd.elf.dir/Scan/UARTConnect/connect_scan.c.o
                0x0000000000009074                uartConnectCLIDict
 .rodata.connectDbgCLIDict_DescEntry
                0x00000000000090d4       0x1f CMakeFiles/kiibohd.elf.dir/Scan/UARTConnect/connect_scan.c.o
                0x00000000000090d4                connectDbgCLIDict_DescEntry
 .rodata.connectStsCLIDict_DescEntry
                0x00000000000090f3       0x14 CMakeFiles/kiibohd.elf.dir/Scan/UARTConnect/connect_scan.c.o
                0x00000000000090f3                connectStsCLIDict_DescEntry
 .rodata.str1.1
                0x0000000000009107      0x5a6 CMakeFiles/kiibohd.elf.dir/Scan/UARTConnect/connect_scan.c.o
                                        0x5af (size before relaxing)
 .rodata.connectLstCLIDict_DescEntry
                0x00000000000096ad       0x32 CMakeFiles/kiibohd.elf.dir/Scan/UARTConnect/connect_scan.c.o
                0x00000000000096ad                connectLstCLIDict_DescEntry
 .rodata.uartConnectCLIDictName
                0x00000000000096df       0x1c CMakeFiles/kiibohd.elf.dir/Scan/UARTConnect/connect_scan.c.o
                0x00000000000096df                uartConnectCLIDictName
 .rodata.connectMstCLIDict_DescEntry
                0x00000000000096fb       0x3e CMakeFiles/kiibohd.elf.dir/Scan/UARTConnect/connect_scan.c.o
                0x00000000000096fb                connectMstCLIDict_DescEntry
 .rodata.connectRstCLIDict_DescEntry
                0x0000000000009739       0x3b CMakeFiles/kiibohd.elf.dir/Scan/UARTConnect/connect_scan.c.o
                0x0000000000009739                connectRstCLIDict_DescEntry
 .rodata.connectCmdCLIDict_DescEntry
                0x0000000000009774       0x6c CMakeFiles/kiibohd.elf.dir/Scan/UARTConnect/connect_scan.c.o
                0x0000000000009774                connectCmdCLIDict_DescEntry
 .rodata.connectIdlCLIDict_DescEntry
                0x00000000000097e0       0x61 CMakeFiles/kiibohd.elf.dir/Scan/UARTConnect/connect_scan.c.o
                0x00000000000097e0                connectIdlCLIDict_DescEntry
 *fill*         0x0000000000009841        0x3 
 .rodata.default_tl_0x2B
                0x0000000000009844        0x8 CMakeFiles/kiibohd.elf.dir/Macro/PartialMap/macro.c.o
                0x0000000000009844                default_tl_0x2B
 .rodata.default_tl_0x2C
                0x000000000000984c        0x8 CMakeFiles/kiibohd.elf.dir/Macro/PartialMap/macro.c.o
                0x000000000000984c                default_tl_0x2C
 .rodata.default_tl_0x2D
                0x0000000000009854        0x4 CMakeFiles/kiibohd.elf.dir/Macro/PartialMap/macro.c.o
                0x0000000000009854                default_tl_0x2D
 .rodata.default_tl_0x2E
                0x0000000000009858        0x4 CMakeFiles/kiibohd.elf.dir/Macro/PartialMap/macro.c.o
                0x0000000000009858                default_tl_0x2E
 .rodata.default_tl_0x2F
                0x000000000000985c        0x8 CMakeFiles/kiibohd.elf.dir/Macro/PartialMap/macro.c.o
                0x000000000000985c                default_tl_0x2F
 .rodata.tm11_guide
                0x0000000000009864        0x5 CMakeFiles/kiibohd.elf.dir/Macro/PartialMap/macro.c.o
                0x0000000000009864                tm11_guide
 .rodata.rm40_guide
                0x0000000000009869        0x4 CMakeFiles/kiibohd.elf.dir/Macro/PartialMap/macro.c.o
                0x0000000000009869                rm40_guide
 .rodata.rm92_guide
                0x000000000000986d        0x4 CMakeFiles/kiibohd.elf.dir/Macro/PartialMap/macro.c.o
                0x000000000000986d                rm92_guide
 *fill*         0x0000000000009871        0x3 
 .rodata.default_tl_0x41
                0x0000000000009874        0x4 CMakeFiles/kiibohd.elf.dir/Macro/PartialMap/macro.c.o
                0x0000000000009874                default_tl_0x41
 .rodata.rm64_guide
                0x0000000000009878        0x4 CMakeFiles/kiibohd.elf.dir/Macro/PartialMap/macro.c.o
                0x0000000000009878                rm64_guide
 .rodata.default_tl_0x43
                0x000000000000987c        0x8 CMakeFiles/kiibohd.elf.dir/Macro/PartialMap/macro.c.o
                0x000000000000987c                default_tl_0x43
 .rodata.rm36_guide
                0x0000000000009884        0x4 CMakeFiles/kiibohd.elf.dir/Macro/PartialMap/macro.c.o
                0x0000000000009884                rm36_guide
 .rodata.default_tl_0x44
                0x0000000000009888        0x8 CMakeFiles/kiibohd.elf.dir/Macro/PartialMap/macro.c.o
                0x0000000000009888                default_tl_0x44
 .rodata.default_tl_0x45
                0x0000000000009890        0x8 CMakeFiles/kiibohd.elf.dir/Macro/PartialMap/macro.c.o
                0x0000000000009890                default_tl_0x45
 .rodata.default_tl_0x46
                0x0000000000009898        0x8 CMakeFiles/kiibohd.elf.dir/Macro/PartialMap/macro.c.o
                0x0000000000009898                default_tl_0x46
 .rodata.rm87_guide
                0x00000000000098a0        0x4 CMakeFiles/kiibohd.elf.dir/Macro/PartialMap/macro.c.o
                0x00000000000098a0                rm87_guide
 .rodata.default_tl_0x47
                0x00000000000098a4        0x8 CMakeFiles/kiibohd.elf.dir/Macro/PartialMap/macro.c.o
                0x00000000000098a4                default_tl_0x47
 .rodata.macroCLIDictName
                0x00000000000098ac       0x16 CMakeFiles/kiibohd.elf.dir/Macro/PartialMap/macro.c.o
                0x00000000000098ac                macroCLIDictName
 .rodata.tm41_guide
                0x00000000000098c2        0x5 CMakeFiles/kiibohd.elf.dir/Macro/PartialMap/macro.c.o
                0x00000000000098c2                tm41_guide
 .rodata.tm93_guide
                0x00000000000098c7        0x5 CMakeFiles/kiibohd.elf.dir/Macro/PartialMap/macro.c.o
                0x00000000000098c7                tm93_guide
 .rodata.keyReleaseCLIDict_DescEntry
                0x00000000000098cc       0x6b CMakeFiles/kiibohd.elf.dir/Macro/PartialMap/macro.c.o
                0x00000000000098cc                keyReleaseCLIDict_DescEntry
 .rodata.tm65_guide
                0x0000000000009937        0x5 CMakeFiles/kiibohd.elf.dir/Macro/PartialMap/macro.c.o
                0x0000000000009937                tm65_guide
 .rodata.tm2_guide
                0x000000000000993c        0x5 CMakeFiles/kiibohd.elf.dir/Macro/PartialMap/macro.c.o
                0x000000000000993c                tm2_guide
 .rodata.tm37_guide
                0x0000000000009941        0x5 CMakeFiles/kiibohd.elf.dir/Macro/PartialMap/macro.c.o
                0x0000000000009941                tm37_guide
 *fill*         0x0000000000009946        0x2 
 .rodata.default_tl_0x30
                0x0000000000009948        0x8 CMakeFiles/kiibohd.elf.dir/Macro/PartialMap/macro.c.o
                0x0000000000009948                default_tl_0x30
 .rodata.default_tl_0x31
                0x0000000000009950        0x8 CMakeFiles/kiibohd.elf.dir/Macro/PartialMap/macro.c.o
                0x0000000000009950                default_tl_0x31
 .rodata.default_tl_0x32
                0x0000000000009958        0x8 CMakeFiles/kiibohd.elf.dir/Macro/PartialMap/macro.c.o
                0x0000000000009958                default_tl_0x32
 .rodata.default_tl_0x33
                0x0000000000009960        0x8 CMakeFiles/kiibohd.elf.dir/Macro/PartialMap/macro.c.o
                0x0000000000009960                default_tl_0x33
 .rodata.default_tl_0x34
                0x0000000000009968        0x8 CMakeFiles/kiibohd.elf.dir/Macro/PartialMap/macro.c.o
                0x0000000000009968                default_tl_0x34
 .rodata.default_tl_0x35
                0x0000000000009970        0x8 CMakeFiles/kiibohd.elf.dir/Macro/PartialMap/macro.c.o
                0x0000000000009970                default_tl_0x35
 .rodata.tm101_guide
                0x0000000000009978        0x5 CMakeFiles/kiibohd.elf.dir/Macro/PartialMap/macro.c.o
                0x0000000000009978                tm101_guide
 *fill*         0x000000000000997d        0x3 
 .rodata.default_tl_0x37
                0x0000000000009980        0x4 CMakeFiles/kiibohd.elf.dir/Macro/PartialMap/macro.c.o
                0x0000000000009980                default_tl_0x37
 .rodata.default_tl_0x38
                0x0000000000009984        0x8 CMakeFiles/kiibohd.elf.dir/Macro/PartialMap/macro.c.o
                0x0000000000009984                default_tl_0x38
 .rodata.default_tl_0x39
                0x000000000000998c        0x8 CMakeFiles/kiibohd.elf.dir/Macro/PartialMap/macro.c.o
                0x000000000000998c                default_tl_0x39
 .rodata.default_tl_0x4E
                0x0000000000009994        0x8 CMakeFiles/kiibohd.elf.dir/Macro/PartialMap/macro.c.o
                0x0000000000009994                default_tl_0x4E
 .rodata.default_tl_0x3A
                0x000000000000999c        0x8 CMakeFiles/kiibohd.elf.dir/Macro/PartialMap/macro.c.o
                0x000000000000999c                default_tl_0x3A
 .rodata.default_tl_0x3B
                0x00000000000099a4        0x8 CMakeFiles/kiibohd.elf.dir/Macro/PartialMap/macro.c.o
                0x00000000000099a4                default_tl_0x3B
 .rodata.default_tl_0x3C
                0x00000000000099ac        0x8 CMakeFiles/kiibohd.elf.dir/Macro/PartialMap/macro.c.o
                0x00000000000099ac                default_tl_0x3C
 .rodata.default_tl_0x3D
                0x00000000000099b4        0x8 CMakeFiles/kiibohd.elf.dir/Macro/PartialMap/macro.c.o
                0x00000000000099b4                default_tl_0x3D
 .rodata.default_tl_0x3E
                0x00000000000099bc        0x8 CMakeFiles/kiibohd.elf.dir/Macro/PartialMap/macro.c.o
                0x00000000000099bc                default_tl_0x3E
 .rodata.default_tl_0x3F
                0x00000000000099c4        0x4 CMakeFiles/kiibohd.elf.dir/Macro/PartialMap/macro.c.o
                0x00000000000099c4                default_tl_0x3F
 .rodata.rm81_guide
                0x00000000000099c8        0x4 CMakeFiles/kiibohd.elf.dir/Macro/PartialMap/macro.c.o
                0x00000000000099c8                rm81_guide
 .rodata.macroStepCLIDict_DescEntry
                0x00000000000099cc       0x2c CMakeFiles/kiibohd.elf.dir/Macro/PartialMap/macro.c.o
                0x00000000000099cc                macroStepCLIDict_DescEntry
 .rodata.rm53_guide
                0x00000000000099f8        0x4 CMakeFiles/kiibohd.elf.dir/Macro/PartialMap/macro.c.o
                0x00000000000099f8                rm53_guide
 .rodata.rm25_guide
                0x00000000000099fc        0x4 CMakeFiles/kiibohd.elf.dir/Macro/PartialMap/macro.c.o
                0x00000000000099fc                rm25_guide
 .rodata.tm3_guide
                0x0000000000009a00        0x5 CMakeFiles/kiibohd.elf.dir/Macro/PartialMap/macro.c.o
                0x0000000000009a00                tm3_guide
 .rodata.rm21_guide
                0x0000000000009a05        0x4 CMakeFiles/kiibohd.elf.dir/Macro/PartialMap/macro.c.o
                0x0000000000009a05                rm21_guide
 .rodata.capSelectCLIDict_DescEntry
                0x0000000000009a09       0x76 CMakeFiles/kiibohd.elf.dir/Macro/PartialMap/macro.c.o
                0x0000000000009a09                capSelectCLIDict_DescEntry
 .rodata.rm77_guide
                0x0000000000009a7f        0x4 CMakeFiles/kiibohd.elf.dir/Macro/PartialMap/macro.c.o
                0x0000000000009a7f                rm77_guide
 .rodata.InterconnectOffsetList
                0x0000000000009a83        0x2 CMakeFiles/kiibohd.elf.dir/Macro/PartialMap/macro.c.o
                0x0000000000009a83                InterconnectOffsetList
 .rodata.tm76_guide
                0x0000000000009a85        0x5 CMakeFiles/kiibohd.elf.dir/Macro/PartialMap/macro.c.o
                0x0000000000009a85                tm76_guide
 .rodata.rm49_guide
                0x0000000000009a8a        0x4 CMakeFiles/kiibohd.elf.dir/Macro/PartialMap/macro.c.o
                0x0000000000009a8a                rm49_guide
 *fill*         0x0000000000009a8e        0x2 
 .rodata.layer1_tl_0x02
                0x0000000000009a90        0x8 CMakeFiles/kiibohd.elf.dir/Macro/PartialMap/macro.c.o
                0x0000000000009a90                layer1_tl_0x02
 .rodata.layer1_tl_0x03
                0x0000000000009a98        0x8 CMakeFiles/kiibohd.elf.dir/Macro/PartialMap/macro.c.o
                0x0000000000009a98                layer1_tl_0x03
 .rodata.layer1_tl_0x04
                0x0000000000009aa0        0x8 CMakeFiles/kiibohd.elf.dir/Macro/PartialMap/macro.c.o
                0x0000000000009aa0                layer1_tl_0x04
 .rodata.layer1_tl_0x05
                0x0000000000009aa8        0x8 CMakeFiles/kiibohd.elf.dir/Macro/PartialMap/macro.c.o
                0x0000000000009aa8                layer1_tl_0x05
 .rodata.layer1_tl_0x06
                0x0000000000009ab0        0x8 CMakeFiles/kiibohd.elf.dir/Macro/PartialMap/macro.c.o
                0x0000000000009ab0                layer1_tl_0x06
 .rodata.layer1_tl_0x07
                0x0000000000009ab8        0x8 CMakeFiles/kiibohd.elf.dir/Macro/PartialMap/macro.c.o
                0x0000000000009ab8                layer1_tl_0x07
 .rodata.layer1_tl_0x08
                0x0000000000009ac0        0x8 CMakeFiles/kiibohd.elf.dir/Macro/PartialMap/macro.c.o
                0x0000000000009ac0                layer1_tl_0x08
 .rodata.layer1_tl_0x09
                0x0000000000009ac8        0x4 CMakeFiles/kiibohd.elf.dir/Macro/PartialMap/macro.c.o
                0x0000000000009ac8                layer1_tl_0x09
 .rodata.tm78_guide
                0x0000000000009acc        0x5 CMakeFiles/kiibohd.elf.dir/Macro/PartialMap/macro.c.o
                0x0000000000009acc                tm78_guide
 *fill*         0x0000000000009ad1        0x3 
 .rodata.macroCLIDict
                0x0000000000009ad4       0xa8 CMakeFiles/kiibohd.elf.dir/Macro/PartialMap/macro.c.o
                0x0000000000009ad4                macroCLIDict
 .rodata.rm85_guide
                0x0000000000009b7c        0x4 CMakeFiles/kiibohd.elf.dir/Macro/PartialMap/macro.c.o
                0x0000000000009b7c                rm85_guide
 .rodata.default_tl_0x40
                0x0000000000009b80        0x4 CMakeFiles/kiibohd.elf.dir/Macro/PartialMap/macro.c.o
                0x0000000000009b80                default_tl_0x40
 .rodata.rm79_guide
                0x0000000000009b84        0x4 CMakeFiles/kiibohd.elf.dir/Macro/PartialMap/macro.c.o
                0x0000000000009b84                rm79_guide
 .rodata.layer1_tl_0x0A
                0x0000000000009b88        0x4 CMakeFiles/kiibohd.elf.dir/Macro/PartialMap/macro.c.o
                0x0000000000009b88                layer1_tl_0x0A
 .rodata.layer1_tl_0x0B
                0x0000000000009b8c        0x4 CMakeFiles/kiibohd.elf.dir/Macro/PartialMap/macro.c.o
                0x0000000000009b8c                layer1_tl_0x0B
 .rodata.layer1_tl_0x0C
                0x0000000000009b90        0x4 CMakeFiles/kiibohd.elf.dir/Macro/PartialMap/macro.c.o
                0x0000000000009b90                layer1_tl_0x0C
 .rodata.layer1_tl_0x0D
                0x0000000000009b94        0x4 CMakeFiles/kiibohd.elf.dir/Macro/PartialMap/macro.c.o
                0x0000000000009b94                layer1_tl_0x0D
 .rodata.layer1_tl_0x0E
                0x0000000000009b98        0x4 CMakeFiles/kiibohd.elf.dir/Macro/PartialMap/macro.c.o
                0x0000000000009b98                layer1_tl_0x0E
 .rodata.layer1_tl_0x0F
                0x0000000000009b9c        0x4 CMakeFiles/kiibohd.elf.dir/Macro/PartialMap/macro.c.o
                0x0000000000009b9c                layer1_tl_0x0F
 .rodata.default_tl_0x48
                0x0000000000009ba0        0x8 CMakeFiles/kiibohd.elf.dir/Macro/PartialMap/macro.c.o
                0x0000000000009ba0                default_tl_0x48
 .rodata.default_tl_0x49
                0x0000000000009ba8        0x8 CMakeFiles/kiibohd.elf.dir/Macro/PartialMap/macro.c.o
                0x0000000000009ba8                default_tl_0x49
 .rodata.default_tl_0x57
                0x0000000000009bb0        0x8 CMakeFiles/kiibohd.elf.dir/Macro/PartialMap/macro.c.o
                0x0000000000009bb0                default_tl_0x57
 .rodata.rm12_guide
                0x0000000000009bb8        0x4 CMakeFiles/kiibohd.elf.dir/Macro/PartialMap/macro.c.o
                0x0000000000009bb8                rm12_guide
 .rodata.default_tl_0x4A
                0x0000000000009bbc        0x8 CMakeFiles/kiibohd.elf.dir/Macro/PartialMap/macro.c.o
                0x0000000000009bbc                default_tl_0x4A
 .rodata.default_tl_0x4B
                0x0000000000009bc4        0x8 CMakeFiles/kiibohd.elf.dir/Macro/PartialMap/macro.c.o
                0x0000000000009bc4                default_tl_0x4B
 .rodata.default_tl_0x4C
                0x0000000000009bcc        0x8 CMakeFiles/kiibohd.elf.dir/Macro/PartialMap/macro.c.o
                0x0000000000009bcc                default_tl_0x4C
 .rodata.default_tl_0x4D
                0x0000000000009bd4        0x8 CMakeFiles/kiibohd.elf.dir/Macro/PartialMap/macro.c.o
                0x0000000000009bd4                default_tl_0x4D
 .rodata.capListCLIDict_DescEntry
                0x0000000000009bdc       0x3c CMakeFiles/kiibohd.elf.dir/Macro/PartialMap/macro.c.o
                0x0000000000009bdc                capListCLIDict_DescEntry
 .rodata.default_tl_0x4F
                0x0000000000009c18        0x8 CMakeFiles/kiibohd.elf.dir/Macro/PartialMap/macro.c.o
                0x0000000000009c18                default_tl_0x4F
 .rodata.tm108_guide
                0x0000000000009c20        0x5 CMakeFiles/kiibohd.elf.dir/Macro/PartialMap/macro.c.o
                0x0000000000009c20                tm108_guide
 *fill*         0x0000000000009c25        0x3 
 .rodata.default_tl_0x55
                0x0000000000009c28        0x8 CMakeFiles/kiibohd.elf.dir/Macro/PartialMap/macro.c.o
                0x0000000000009c28                default_tl_0x55
 .rodata.rm70_guide
                0x0000000000009c30        0x4 CMakeFiles/kiibohd.elf.dir/Macro/PartialMap/macro.c.o
                0x0000000000009c30                rm70_guide
 .rodata.tm13_guide
                0x0000000000009c34        0x5 CMakeFiles/kiibohd.elf.dir/Macro/PartialMap/macro.c.o
                0x0000000000009c34                tm13_guide
 .rodata.rm42_guide
                0x0000000000009c39        0x4 CMakeFiles/kiibohd.elf.dir/Macro/PartialMap/macro.c.o
                0x0000000000009c39                rm42_guide
 .rodata.rm46_guide
                0x0000000000009c3d        0x4 CMakeFiles/kiibohd.elf.dir/Macro/PartialMap/macro.c.o
                0x0000000000009c3d                rm46_guide
 *fill*         0x0000000000009c41        0x3 
 .rodata.ResultMacroList
                0x0000000000009c44      0x188 CMakeFiles/kiibohd.elf.dir/Macro/PartialMap/macro.c.o
                0x0000000000009c44                ResultMacroList
 .rodata.rm66_guide
                0x0000000000009dcc        0x4 CMakeFiles/kiibohd.elf.dir/Macro/PartialMap/macro.c.o
                0x0000000000009dcc                rm66_guide
 .rodata.default_tl_0x52
                0x0000000000009dd0        0x8 CMakeFiles/kiibohd.elf.dir/Macro/PartialMap/macro.c.o
                0x0000000000009dd0                default_tl_0x52
 .rodata.default_tl_0x53
                0x0000000000009dd8        0x8 CMakeFiles/kiibohd.elf.dir/Macro/PartialMap/macro.c.o
                0x0000000000009dd8                default_tl_0x53
 .rodata.default_tl_0x54
                0x0000000000009de0        0x8 CMakeFiles/kiibohd.elf.dir/Macro/PartialMap/macro.c.o
                0x0000000000009de0                default_tl_0x54
 .rodata.tm71_guide
                0x0000000000009de8        0x5 CMakeFiles/kiibohd.elf.dir/Macro/PartialMap/macro.c.o
                0x0000000000009de8                tm71_guide
 .rodata.rm5_guide
                0x0000000000009ded        0x4 CMakeFiles/kiibohd.elf.dir/Macro/PartialMap/macro.c.o
                0x0000000000009ded                rm5_guide
 *fill*         0x0000000000009df1        0x3 
 .rodata.default_tl_0x56
                0x0000000000009df4        0x8 CMakeFiles/kiibohd.elf.dir/Macro/PartialMap/macro.c.o
                0x0000000000009df4                default_tl_0x56
 .rodata.tm43_guide
                0x0000000000009dfc        0x5 CMakeFiles/kiibohd.elf.dir/Macro/PartialMap/macro.c.o
                0x0000000000009dfc                tm43_guide
 *fill*         0x0000000000009e01        0x3 
 .rodata.layer1_tl_0x11
                0x0000000000009e04        0x4 CMakeFiles/kiibohd.elf.dir/Macro/PartialMap/macro.c.o
                0x0000000000009e04                layer1_tl_0x11
 .rodata.layer1_tl_0x12
                0x0000000000009e08        0x4 CMakeFiles/kiibohd.elf.dir/Macro/PartialMap/macro.c.o
                0x0000000000009e08                layer1_tl_0x12
 .rodata.layer1_tl_0x13
                0x0000000000009e0c        0x4 CMakeFiles/kiibohd.elf.dir/Macro/PartialMap/macro.c.o
                0x0000000000009e0c                layer1_tl_0x13
 .rodata.tm95_guide
                0x0000000000009e10        0x5 CMakeFiles/kiibohd.elf.dir/Macro/PartialMap/macro.c.o
                0x0000000000009e10                tm95_guide
 *fill*         0x0000000000009e15        0x3 
 .rodata.layer1_tl_0x15
                0x0000000000009e18        0x4 CMakeFiles/kiibohd.elf.dir/Macro/PartialMap/macro.c.o
                0x0000000000009e18                layer1_tl_0x15
 .rodata.layer1_tl_0x16
                0x0000000000009e1c        0x4 CMakeFiles/kiibohd.elf.dir/Macro/PartialMap/macro.c.o
                0x0000000000009e1c                layer1_tl_0x16
 .rodata.layer1_tl_0x17
                0x0000000000009e20        0x4 CMakeFiles/kiibohd.elf.dir/Macro/PartialMap/macro.c.o
                0x0000000000009e20                layer1_tl_0x17
 .rodata.tm4_guide
                0x0000000000009e24        0x5 CMakeFiles/kiibohd.elf.dir/Macro/PartialMap/macro.c.o
                0x0000000000009e24                tm4_guide
 *fill*         0x0000000000009e29        0x3 
 .rodata.layer1_tl_0x19
                0x0000000000009e2c        0x4 CMakeFiles/kiibohd.elf.dir/Macro/PartialMap/macro.c.o
                0x0000000000009e2c                layer1_tl_0x19
 .rodata.tm39_guide
                0x0000000000009e30        0x5 CMakeFiles/kiibohd.elf.dir/Macro/PartialMap/macro.c.o
                0x0000000000009e30                tm39_guide
 *fill*         0x0000000000009e35        0x3 
 .rodata.default_tl_0x50
                0x0000000000009e38        0x8 CMakeFiles/kiibohd.elf.dir/Macro/PartialMap/macro.c.o
                0x0000000000009e38                default_tl_0x50
 .rodata.default_tl_0x51
                0x0000000000009e40        0x8 CMakeFiles/kiibohd.elf.dir/Macro/PartialMap/macro.c.o
                0x0000000000009e40                default_tl_0x51
 .rodata.layer1_tl_0x1A
                0x0000000000009e48        0x4 CMakeFiles/kiibohd.elf.dir/Macro/PartialMap/macro.c.o
                0x0000000000009e48                layer1_tl_0x1A
 .rodata.tm103_guide
                0x0000000000009e4c        0x5 CMakeFiles/kiibohd.elf.dir/Macro/PartialMap/macro.c.o
                0x0000000000009e4c                tm103_guide
 *fill*         0x0000000000009e51        0x3 
 .rodata.layer1_tl_0x1C
                0x0000000000009e54        0x4 CMakeFiles/kiibohd.elf.dir/Macro/PartialMap/macro.c.o
                0x0000000000009e54                layer1_tl_0x1C
 .rodata.layer1_tl_0x1D
                0x0000000000009e58        0x4 CMakeFiles/kiibohd.elf.dir/Macro/PartialMap/macro.c.o
                0x0000000000009e58                layer1_tl_0x1D
 .rodata.layer1_tl_0x1E
                0x0000000000009e5c        0x4 CMakeFiles/kiibohd.elf.dir/Macro/PartialMap/macro.c.o
                0x0000000000009e5c                layer1_tl_0x1E
 .rodata.layer1_tl_0x1F
                0x0000000000009e60        0x4 CMakeFiles/kiibohd.elf.dir/Macro/PartialMap/macro.c.o
                0x0000000000009e60                layer1_tl_0x1F
 .rodata.default_tl_0x58
                0x0000000000009e64        0x8 CMakeFiles/kiibohd.elf.dir/Macro/PartialMap/macro.c.o
                0x0000000000009e64                default_tl_0x58
 .rodata.default_tl_0x59
                0x0000000000009e6c        0x8 CMakeFiles/kiibohd.elf.dir/Macro/PartialMap/macro.c.o
                0x0000000000009e6c                default_tl_0x59
 .rodata.tm18_guide
                0x0000000000009e74        0x5 CMakeFiles/kiibohd.elf.dir/Macro/PartialMap/macro.c.o
                0x0000000000009e74                tm18_guide
 .rodata.rm94_guide
                0x0000000000009e79        0x4 CMakeFiles/kiibohd.elf.dir/Macro/PartialMap/macro.c.o
                0x0000000000009e79                rm94_guide
 .rodata.tm97_guide
                0x0000000000009e7d        0x5 CMakeFiles/kiibohd.elf.dir/Macro/PartialMap/macro.c.o
                0x0000000000009e7d                tm97_guide
 .rodata.tm30_guide
                0x0000000000009e82        0x5 CMakeFiles/kiibohd.elf.dir/Macro/PartialMap/macro.c.o
                0x0000000000009e82                tm30_guide
 .rodata.rm31_guide
                0x0000000000009e87        0x4 CMakeFiles/kiibohd.elf.dir/Macro/PartialMap/macro.c.o
                0x0000000000009e87                rm31_guide
 .rodata.rm83_guide
                0x0000000000009e8b        0x4 CMakeFiles/kiibohd.elf.dir/Macro/PartialMap/macro.c.o
                0x0000000000009e8b                rm83_guide
 .rodata.rm55_guide
                0x0000000000009e8f        0x4 CMakeFiles/kiibohd.elf.dir/Macro/PartialMap/macro.c.o
                0x0000000000009e8f                rm55_guide
 .rodata.rm27_guide
                0x0000000000009e93        0x4 CMakeFiles/kiibohd.elf.dir/Macro/PartialMap/macro.c.o
                0x0000000000009e93                rm27_guide
 .rodata.tm60_guide
                0x0000000000009e97        0x5 CMakeFiles/kiibohd.elf.dir/Macro/PartialMap/macro.c.o
                0x0000000000009e97                tm60_guide
 .rodata.tm84_guide
                0x0000000000009e9c        0x5 CMakeFiles/kiibohd.elf.dir/Macro/PartialMap/macro.c.o
                0x0000000000009e9c                tm84_guide
 *fill*         0x0000000000009ea1        0x3 
 .rodata.layer1_tl_0x20
                0x0000000000009ea4        0x4 CMakeFiles/kiibohd.elf.dir/Macro/PartialMap/macro.c.o
                0x0000000000009ea4                layer1_tl_0x20
 .rodata.layer1_tl_0x21
                0x0000000000009ea8        0x4 CMakeFiles/kiibohd.elf.dir/Macro/PartialMap/macro.c.o
                0x0000000000009ea8                layer1_tl_0x21
 .rodata.tm56_guide
                0x0000000000009eac        0x5 CMakeFiles/kiibohd.elf.dir/Macro/PartialMap/macro.c.o
                0x0000000000009eac                tm56_guide
 *fill*         0x0000000000009eb1        0x3 
 .rodata.layer1_tl_0x23
                0x0000000000009eb4        0x4 CMakeFiles/kiibohd.elf.dir/Macro/PartialMap/macro.c.o
                0x0000000000009eb4                layer1_tl_0x23
 .rodata.layer1_tl_0x24
                0x0000000000009eb8        0x4 CMakeFiles/kiibohd.elf.dir/Macro/PartialMap/macro.c.o
                0x0000000000009eb8                layer1_tl_0x24
 .rodata.tm28_guide
                0x0000000000009ebc        0x5 CMakeFiles/kiibohd.elf.dir/Macro/PartialMap/macro.c.o
                0x0000000000009ebc                tm28_guide
 *fill*         0x0000000000009ec1        0x3 
 .rodata.layer1_tl_0x26
                0x0000000000009ec4        0x4 CMakeFiles/kiibohd.elf.dir/Macro/PartialMap/macro.c.o
                0x0000000000009ec4                layer1_tl_0x26
 .rodata.layer1_tl_0x27
                0x0000000000009ec8        0x4 CMakeFiles/kiibohd.elf.dir/Macro/PartialMap/macro.c.o
                0x0000000000009ec8                layer1_tl_0x27
 .rodata.layer1_tl_0x28
                0x0000000000009ecc        0x4 CMakeFiles/kiibohd.elf.dir/Macro/PartialMap/macro.c.o
                0x0000000000009ecc                layer1_tl_0x28
 .rodata.layer1_tl_0x29
                0x0000000000009ed0        0x4 CMakeFiles/kiibohd.elf.dir/Macro/PartialMap/macro.c.o
                0x0000000000009ed0                layer1_tl_0x29
 .rodata.layer1_tl_0x2A
                0x0000000000009ed4        0x4 CMakeFiles/kiibohd.elf.dir/Macro/PartialMap/macro.c.o
                0x0000000000009ed4                layer1_tl_0x2A
 .rodata.layer1_tl_0x2B
                0x0000000000009ed8        0x4 CMakeFiles/kiibohd.elf.dir/Macro/PartialMap/macro.c.o
                0x0000000000009ed8                layer1_tl_0x2B
 .rodata.layer1_tl_0x2C
                0x0000000000009edc        0x4 CMakeFiles/kiibohd.elf.dir/Macro/PartialMap/macro.c.o
                0x0000000000009edc                layer1_tl_0x2C
 .rodata.layer1_tl_0x2D
                0x0000000000009ee0        0x4 CMakeFiles/kiibohd.elf.dir/Macro/PartialMap/macro.c.o
                0x0000000000009ee0                layer1_tl_0x2D
 .rodata.layer1_tl_0x2E
                0x0000000000009ee4        0x4 CMakeFiles/kiibohd.elf.dir/Macro/PartialMap/macro.c.o
                0x0000000000009ee4                layer1_tl_0x2E
 .rodata.layer1_tl_0x2F
                0x0000000000009ee8        0x8 CMakeFiles/kiibohd.elf.dir/Macro/PartialMap/macro.c.o
                0x0000000000009ee8                layer1_tl_0x2F
 .rodata.CapabilitiesList
                0x0000000000009ef0       0x80 CMakeFiles/kiibohd.elf.dir/Macro/PartialMap/macro.c.o
                0x0000000000009ef0                CapabilitiesList
 .rodata.keyPressCLIDict_DescEntry
                0x0000000000009f70       0x6e CMakeFiles/kiibohd.elf.dir/Macro/PartialMap/macro.c.o
                0x0000000000009f70                keyPressCLIDict_DescEntry
 .rodata.rm72_guide
                0x0000000000009fde        0x4 CMakeFiles/kiibohd.elf.dir/Macro/PartialMap/macro.c.o
                0x0000000000009fde                rm72_guide
 .rodata.tm15_guide
                0x0000000000009fe2        0x5 CMakeFiles/kiibohd.elf.dir/Macro/PartialMap/macro.c.o
                0x0000000000009fe2                tm15_guide
 .rodata.rm44_guide
                0x0000000000009fe7        0x4 CMakeFiles/kiibohd.elf.dir/Macro/PartialMap/macro.c.o
                0x0000000000009fe7                rm44_guide
 .rodata.rm16_guide
                0x0000000000009feb        0x4 CMakeFiles/kiibohd.elf.dir/Macro/PartialMap/macro.c.o
                0x0000000000009feb                rm16_guide
 .rodata.rm68_guide
                0x0000000000009fef        0x4 CMakeFiles/kiibohd.elf.dir/Macro/PartialMap/macro.c.o
                0x0000000000009fef                rm68_guide
 .rodata.tm87_guide
                0x0000000000009ff3        0x5 CMakeFiles/kiibohd.elf.dir/Macro/PartialMap/macro.c.o
                0x0000000000009ff3                tm87_guide
 .rodata.tm73_guide
                0x0000000000009ff8        0x5 CMakeFiles/kiibohd.elf.dir/Macro/PartialMap/macro.c.o
                0x0000000000009ff8                tm73_guide
 .rodata.rm7_guide
                0x0000000000009ffd        0x4 CMakeFiles/kiibohd.elf.dir/Macro/PartialMap/macro.c.o
                0x0000000000009ffd                rm7_guide
 .rodata.tm45_guide
                0x000000000000a001        0x5 CMakeFiles/kiibohd.elf.dir/Macro/PartialMap/macro.c.o
                0x000000000000a001                tm45_guide
 .rodata.tm17_guide
                0x000000000000a006        0x5 CMakeFiles/kiibohd.elf.dir/Macro/PartialMap/macro.c.o
                0x000000000000a006                tm17_guide
 *fill*         0x000000000000a00b        0x1 
 .rodata.layer1_tl_0x31
                0x000000000000a00c        0x8 CMakeFiles/kiibohd.elf.dir/Macro/PartialMap/macro.c.o
                0x000000000000a00c                layer1_tl_0x31
 .rodata.layer1_tl_0x32
                0x000000000000a014        0x8 CMakeFiles/kiibohd.elf.dir/Macro/PartialMap/macro.c.o
                0x000000000000a014                layer1_tl_0x32
 .rodata.layer1_tl_0x33
                0x000000000000a01c        0x8 CMakeFiles/kiibohd.elf.dir/Macro/PartialMap/macro.c.o
                0x000000000000a01c                layer1_tl_0x33
 .rodata.layer1_tl_0x34
                0x000000000000a024        0x8 CMakeFiles/kiibohd.elf.dir/Macro/PartialMap/macro.c.o
                0x000000000000a024                layer1_tl_0x34
 .rodata.layer1_tl_0x35
                0x000000000000a02c        0x8 CMakeFiles/kiibohd.elf.dir/Macro/PartialMap/macro.c.o
                0x000000000000a02c                layer1_tl_0x35
 .rodata.tm105_guide
                0x000000000000a034        0x5 CMakeFiles/kiibohd.elf.dir/Macro/PartialMap/macro.c.o
                0x000000000000a034                tm105_guide
 .rodata.rm38_guide
                0x000000000000a039        0x4 CMakeFiles/kiibohd.elf.dir/Macro/PartialMap/macro.c.o
                0x000000000000a039                rm38_guide
 .rodata.tm48_guide
                0x000000000000a03d        0x5 CMakeFiles/kiibohd.elf.dir/Macro/PartialMap/macro.c.o
                0x000000000000a03d                tm48_guide
 .rodata.macroDebugCLIDict_DescEntry
                0x000000000000a042       0x51 CMakeFiles/kiibohd.elf.dir/Macro/PartialMap/macro.c.o
                0x000000000000a042                macroDebugCLIDict_DescEntry
 .rodata.tm99_guide
                0x000000000000a093        0x5 CMakeFiles/kiibohd.elf.dir/Macro/PartialMap/macro.c.o
                0x000000000000a093                tm99_guide
 .rodata.tm32_guide
                0x000000000000a098        0x5 CMakeFiles/kiibohd.elf.dir/Macro/PartialMap/macro.c.o
                0x000000000000a098                tm32_guide
 .rodata.rm61_guide
                0x000000000000a09d        0x4 CMakeFiles/kiibohd.elf.dir/Macro/PartialMap/macro.c.o
                0x000000000000a09d                rm61_guide
 .rodata.rm33_guide
                0x000000000000a0a1        0x4 CMakeFiles/kiibohd.elf.dir/Macro/PartialMap/macro.c.o
                0x000000000000a0a1                rm33_guide
 *fill*         0x000000000000a0a5        0x3 
 .rodata.layer2_tl_0x07
                0x000000000000a0a8        0x8 CMakeFiles/kiibohd.elf.dir/Macro/PartialMap/macro.c.o
                0x000000000000a0a8                layer2_tl_0x07
 .rodata.rm14_guide
                0x000000000000a0b0        0x4 CMakeFiles/kiibohd.elf.dir/Macro/PartialMap/macro.c.o
                0x000000000000a0b0                rm14_guide
 .rodata.rm57_guide
                0x000000000000a0b4        0x4 CMakeFiles/kiibohd.elf.dir/Macro/PartialMap/macro.c.o
                0x000000000000a0b4                rm57_guide
 .rodata.rm29_guide
                0x000000000000a0b8        0x4 CMakeFiles/kiibohd.elf.dir/Macro/PartialMap/macro.c.o
                0x000000000000a0b8                rm29_guide
 .rodata.layer1_tl_0x10
                0x000000000000a0bc        0x4 CMakeFiles/kiibohd.elf.dir/Macro/PartialMap/macro.c.o
                0x000000000000a0bc                layer1_tl_0x10
 .rodata.tm90_guide
                0x000000000000a0c0        0x5 CMakeFiles/kiibohd.elf.dir/Macro/PartialMap/macro.c.o
                0x000000000000a0c0                tm90_guide
 .rodata.tm62_guide
                0x000000000000a0c5        0x5 CMakeFiles/kiibohd.elf.dir/Macro/PartialMap/macro.c.o
                0x000000000000a0c5                tm62_guide
 *fill*         0x000000000000a0ca        0x2 
 .rodata.TriggerMacroList
                0x000000000000a0cc      0x368 CMakeFiles/kiibohd.elf.dir/Macro/PartialMap/macro.c.o
                0x000000000000a0cc                TriggerMacroList
 .rodata.tm34_guide
                0x000000000000a434        0x5 CMakeFiles/kiibohd.elf.dir/Macro/PartialMap/macro.c.o
                0x000000000000a434                tm34_guide
 .rodata.tm86_guide
                0x000000000000a439        0x5 CMakeFiles/kiibohd.elf.dir/Macro/PartialMap/macro.c.o
                0x000000000000a439                tm86_guide
 .rodata.tm58_guide
                0x000000000000a43e        0x5 CMakeFiles/kiibohd.elf.dir/Macro/PartialMap/macro.c.o
                0x000000000000a43e                tm58_guide
 *fill*         0x000000000000a443        0x1 
 .rodata.layer1_tl_0x18
                0x000000000000a444        0x4 CMakeFiles/kiibohd.elf.dir/Macro/PartialMap/macro.c.o
                0x000000000000a444                layer1_tl_0x18
 .rodata.tm6_guide
                0x000000000000a448        0x5 CMakeFiles/kiibohd.elf.dir/Macro/PartialMap/macro.c.o
                0x000000000000a448                tm6_guide
 .rodata.rm18_guide
                0x000000000000a44d        0x4 CMakeFiles/kiibohd.elf.dir/Macro/PartialMap/macro.c.o
                0x000000000000a44d                rm18_guide
 .rodata.rm20_guide
                0x000000000000a451        0x4 CMakeFiles/kiibohd.elf.dir/Macro/PartialMap/macro.c.o
                0x000000000000a451                rm20_guide
 *fill*         0x000000000000a455        0x3 
 .rodata.layer1_tl_0x1B
                0x000000000000a458        0x4 CMakeFiles/kiibohd.elf.dir/Macro/PartialMap/macro.c.o
                0x000000000000a458                layer1_tl_0x1B
 .rodata.layer2_tl_0x04
                0x000000000000a45c        0x8 CMakeFiles/kiibohd.elf.dir/Macro/PartialMap/macro.c.o
                0x000000000000a45c                layer2_tl_0x04
 .rodata.layer2_tl_0x05
                0x000000000000a464        0x8 CMakeFiles/kiibohd.elf.dir/Macro/PartialMap/macro.c.o
                0x000000000000a464                layer2_tl_0x05
 .rodata.layer2_tl_0x06
                0x000000000000a46c        0x8 CMakeFiles/kiibohd.elf.dir/Macro/PartialMap/macro.c.o
                0x000000000000a46c                layer2_tl_0x06
 .rodata.rm50_guide
                0x000000000000a474        0x4 CMakeFiles/kiibohd.elf.dir/Macro/PartialMap/macro.c.o
                0x000000000000a474                rm50_guide
 .rodata.layer2_tl_0x08
                0x000000000000a478        0x4 CMakeFiles/kiibohd.elf.dir/Macro/PartialMap/macro.c.o
                0x000000000000a478                layer2_tl_0x08
 .rodata.layer2_tl_0x09
                0x000000000000a47c        0x4 CMakeFiles/kiibohd.elf.dir/Macro/PartialMap/macro.c.o
                0x000000000000a47c                layer2_tl_0x09
 .rodata.rm22_guide
                0x000000000000a480        0x4 CMakeFiles/kiibohd.elf.dir/Macro/PartialMap/macro.c.o
                0x000000000000a480                rm22_guide
 .rodata.rm74_guide
                0x000000000000a484        0x4 CMakeFiles/kiibohd.elf.dir/Macro/PartialMap/macro.c.o
                0x000000000000a484                rm74_guide
 .rodata.layer2_tl_0x0A
                0x000000000000a488        0x4 CMakeFiles/kiibohd.elf.dir/Macro/PartialMap/macro.c.o
                0x000000000000a488                layer2_tl_0x0A
 .rodata.layer2_tl_0x0B
                0x000000000000a48c        0x4 CMakeFiles/kiibohd.elf.dir/Macro/PartialMap/macro.c.o
                0x000000000000a48c                layer2_tl_0x0B
 .rodata.layer2_tl_0x0C
                0x000000000000a490        0x4 CMakeFiles/kiibohd.elf.dir/Macro/PartialMap/macro.c.o
                0x000000000000a490                layer2_tl_0x0C
 .rodata.layer2_tl_0x0D
                0x000000000000a494        0x8 CMakeFiles/kiibohd.elf.dir/Macro/PartialMap/macro.c.o
                0x000000000000a494                layer2_tl_0x0D
 .rodata.layer2_tl_0x0E
                0x000000000000a49c        0x8 CMakeFiles/kiibohd.elf.dir/Macro/PartialMap/macro.c.o
                0x000000000000a49c                layer2_tl_0x0E
 .rodata.layer2_tl_0x0F
                0x000000000000a4a4        0x8 CMakeFiles/kiibohd.elf.dir/Macro/PartialMap/macro.c.o
                0x000000000000a4a4                layer2_tl_0x0F
 .rodata.tm0_guide
                0x000000000000a4ac        0x5 CMakeFiles/kiibohd.elf.dir/Macro/PartialMap/macro.c.o
                0x000000000000a4ac                tm0_guide
 .rodata.tm51_guide
                0x000000000000a4b1        0x5 CMakeFiles/kiibohd.elf.dir/Macro/PartialMap/macro.c.o
                0x000000000000a4b1                tm51_guide
 .rodata.tm75_guide
                0x000000000000a4b6        0x5 CMakeFiles/kiibohd.elf.dir/Macro/PartialMap/macro.c.o
                0x000000000000a4b6                tm75_guide
 .rodata.rm9_guide
                0x000000000000a4bb        0x4 CMakeFiles/kiibohd.elf.dir/Macro/PartialMap/macro.c.o
                0x000000000000a4bb                rm9_guide
 .rodata.tm67_guide
                0x000000000000a4bf        0x5 CMakeFiles/kiibohd.elf.dir/Macro/PartialMap/macro.c.o
                0x000000000000a4bf                tm67_guide
 .rodata.tm47_guide
                0x000000000000a4c4        0x5 CMakeFiles/kiibohd.elf.dir/Macro/PartialMap/macro.c.o
                0x000000000000a4c4                tm47_guide
 .rodata.tm19_guide
                0x000000000000a4c9        0x5 CMakeFiles/kiibohd.elf.dir/Macro/PartialMap/macro.c.o
                0x000000000000a4c9                tm19_guide
 .rodata.tm8_guide
                0x000000000000a4ce        0x5 CMakeFiles/kiibohd.elf.dir/Macro/PartialMap/macro.c.o
                0x000000000000a4ce                tm8_guide
 .rodata.tm107_guide
                0x000000000000a4d3        0x5 CMakeFiles/kiibohd.elf.dir/Macro/PartialMap/macro.c.o
                0x000000000000a4d3                tm107_guide
 .rodata.layer2_tl_0x10
                0x000000000000a4d8        0x8 CMakeFiles/kiibohd.elf.dir/Macro/PartialMap/macro.c.o
                0x000000000000a4d8                layer2_tl_0x10
 .rodata.tm10_guide
                0x000000000000a4e0        0x5 CMakeFiles/kiibohd.elf.dir/Macro/PartialMap/macro.c.o
                0x000000000000a4e0                tm10_guide
 *fill*         0x000000000000a4e5        0x3 
 .rodata.layer2_tl_0x12
                0x000000000000a4e8        0x4 CMakeFiles/kiibohd.elf.dir/Macro/PartialMap/macro.c.o
                0x000000000000a4e8                layer2_tl_0x12
 .rodata.layer2_tl_0x13
                0x000000000000a4ec        0x4 CMakeFiles/kiibohd.elf.dir/Macro/PartialMap/macro.c.o
                0x000000000000a4ec                layer2_tl_0x13
 .rodata.layer2_tl_0x14
                0x000000000000a4f0        0x4 CMakeFiles/kiibohd.elf.dir/Macro/PartialMap/macro.c.o
                0x000000000000a4f0                layer2_tl_0x14
 .rodata.layer2_tl_0x15
                0x000000000000a4f4        0x4 CMakeFiles/kiibohd.elf.dir/Macro/PartialMap/macro.c.o
                0x000000000000a4f4                layer2_tl_0x15
 .rodata.rm91_guide
                0x000000000000a4f8        0x4 CMakeFiles/kiibohd.elf.dir/Macro/PartialMap/macro.c.o
                0x000000000000a4f8                rm91_guide
 .rodata.layer2_tl_0x17
                0x000000000000a4fc        0x8 CMakeFiles/kiibohd.elf.dir/Macro/PartialMap/macro.c.o
                0x000000000000a4fc                layer2_tl_0x17
 .rodata.layer2_tl_0x18
                0x000000000000a504        0x8 CMakeFiles/kiibohd.elf.dir/Macro/PartialMap/macro.c.o
                0x000000000000a504                layer2_tl_0x18
 .rodata.layer2_tl_0x19
                0x000000000000a50c        0x8 CMakeFiles/kiibohd.elf.dir/Macro/PartialMap/macro.c.o
                0x000000000000a50c                layer2_tl_0x19
 .rodata.layer2_tl_0x11
                0x000000000000a514        0x4 CMakeFiles/kiibohd.elf.dir/Macro/PartialMap/macro.c.o
                0x000000000000a514                layer2_tl_0x11
 .rodata.rm35_guide
                0x000000000000a518        0x4 CMakeFiles/kiibohd.elf.dir/Macro/PartialMap/macro.c.o
                0x000000000000a518                rm35_guide
 .rodata.keyHoldCLIDict_DescEntry
                0x000000000000a51c       0x6d CMakeFiles/kiibohd.elf.dir/Macro/PartialMap/macro.c.o
                0x000000000000a51c                keyHoldCLIDict_DescEntry
 *fill*         0x000000000000a589        0x3 
 .rodata.layer2_tl_0x16
                0x000000000000a58c        0x8 CMakeFiles/kiibohd.elf.dir/Macro/PartialMap/macro.c.o
                0x000000000000a58c                layer2_tl_0x16
 .rodata.layer2_tl_0x1A
                0x000000000000a594        0x4 CMakeFiles/kiibohd.elf.dir/Macro/PartialMap/macro.c.o
                0x000000000000a594                layer2_tl_0x1A
 .rodata.layer2_tl_0x1B
                0x000000000000a598        0x4 CMakeFiles/kiibohd.elf.dir/Macro/PartialMap/macro.c.o
                0x000000000000a598                layer2_tl_0x1B
 .rodata.layer2_tl_0x1C
                0x000000000000a59c        0x4 CMakeFiles/kiibohd.elf.dir/Macro/PartialMap/macro.c.o
                0x000000000000a59c                layer2_tl_0x1C
 .rodata.layer2_tl_0x1D
                0x000000000000a5a0        0x4 CMakeFiles/kiibohd.elf.dir/Macro/PartialMap/macro.c.o
                0x000000000000a5a0                layer2_tl_0x1D
 .rodata.tm55_guide
                0x000000000000a5a4        0x5 CMakeFiles/kiibohd.elf.dir/Macro/PartialMap/macro.c.o
                0x000000000000a5a4                tm55_guide
 *fill*         0x000000000000a5a9        0x3 
 .rodata.layer2_tl_0x1F
                0x000000000000a5ac        0x8 CMakeFiles/kiibohd.elf.dir/Macro/PartialMap/macro.c.o
                0x000000000000a5ac                layer2_tl_0x1F
 .rodata.layerDebugCLIDict_DescEntry
                0x000000000000a5b4       0x35 CMakeFiles/kiibohd.elf.dir/Macro/PartialMap/macro.c.o
                0x000000000000a5b4                layerDebugCLIDict_DescEntry
 .rodata.tm92_guide
                0x000000000000a5e9        0x5 CMakeFiles/kiibohd.elf.dir/Macro/PartialMap/macro.c.o
                0x000000000000a5e9                tm92_guide
 .rodata.tm64_guide
                0x000000000000a5ee        0x5 CMakeFiles/kiibohd.elf.dir/Macro/PartialMap/macro.c.o
                0x000000000000a5ee                tm64_guide
 .rodata.tm1_guide
                0x000000000000a5f3        0x5 CMakeFiles/kiibohd.elf.dir/Macro/PartialMap/macro.c.o
                0x000000000000a5f3                tm1_guide
 .rodata.layer1_tl_0x22
                0x000000000000a5f8        0x4 CMakeFiles/kiibohd.elf.dir/Macro/PartialMap/macro.c.o
                0x000000000000a5f8                layer1_tl_0x22
 .rodata.tm36_guide
                0x000000000000a5fc        0x5 CMakeFiles/kiibohd.elf.dir/Macro/PartialMap/macro.c.o
                0x000000000000a5fc                tm36_guide
 .rodata.tm88_guide
                0x000000000000a601        0x5 CMakeFiles/kiibohd.elf.dir/Macro/PartialMap/macro.c.o
                0x000000000000a601                tm88_guide
 *fill*         0x000000000000a606        0x2 
 .rodata.layer1_tl_0x25
                0x000000000000a608        0x4 CMakeFiles/kiibohd.elf.dir/Macro/PartialMap/macro.c.o
                0x000000000000a608                layer1_tl_0x25
 .rodata.rm89_guide
                0x000000000000a60c        0x4 CMakeFiles/kiibohd.elf.dir/Macro/PartialMap/macro.c.o
                0x000000000000a60c                rm89_guide
 .rodata.tm82_guide
                0x000000000000a610        0x5 CMakeFiles/kiibohd.elf.dir/Macro/PartialMap/macro.c.o
                0x000000000000a610                tm82_guide
 *fill*         0x000000000000a615        0x3 
 .rodata.layer2_tl_0x1E
                0x000000000000a618        0x4 CMakeFiles/kiibohd.elf.dir/Macro/PartialMap/macro.c.o
                0x000000000000a618                layer2_tl_0x1E
 .rodata.tm59_guide
                0x000000000000a61c        0x5 CMakeFiles/kiibohd.elf.dir/Macro/PartialMap/macro.c.o
                0x000000000000a61c                tm59_guide
 *fill*         0x000000000000a621        0x3 
 .rodata.layer2_tl_0x20
                0x000000000000a624        0x8 CMakeFiles/kiibohd.elf.dir/Macro/PartialMap/macro.c.o
                0x000000000000a624                layer2_tl_0x20
 .rodata.rm80_guide
                0x000000000000a62c        0x4 CMakeFiles/kiibohd.elf.dir/Macro/PartialMap/macro.c.o
                0x000000000000a62c                rm80_guide
 .rodata.layer2_tl_0x22
                0x000000000000a630        0x8 CMakeFiles/kiibohd.elf.dir/Macro/PartialMap/macro.c.o
                0x000000000000a630                layer2_tl_0x22
 .rodata.tm23_guide
                0x000000000000a638        0x5 CMakeFiles/kiibohd.elf.dir/Macro/PartialMap/macro.c.o
                0x000000000000a638                tm23_guide
 .rodata.macroProcCLIDict_DescEntry
                0x000000000000a63d       0x1f CMakeFiles/kiibohd.elf.dir/Macro/PartialMap/macro.c.o
                0x000000000000a63d                macroProcCLIDict_DescEntry
 .rodata.layer2_tl_0x25
                0x000000000000a65c        0x4 CMakeFiles/kiibohd.elf.dir/Macro/PartialMap/macro.c.o
                0x000000000000a65c                layer2_tl_0x25
 .rodata.layer2_tl_0x26
                0x000000000000a660        0x4 CMakeFiles/kiibohd.elf.dir/Macro/PartialMap/macro.c.o
                0x000000000000a660                layer2_tl_0x26
 .rodata.layer2_tl_0x27
                0x000000000000a664        0x8 CMakeFiles/kiibohd.elf.dir/Macro/PartialMap/macro.c.o
                0x000000000000a664                layer2_tl_0x27
 .rodata.layer2_tl_0x28
                0x000000000000a66c        0x4 CMakeFiles/kiibohd.elf.dir/Macro/PartialMap/macro.c.o
                0x000000000000a66c                layer2_tl_0x28
 .rodata.layer2_tl_0x29
                0x000000000000a670        0x4 CMakeFiles/kiibohd.elf.dir/Macro/PartialMap/macro.c.o
                0x000000000000a670                layer2_tl_0x29
 .rodata.rm76_guide
                0x000000000000a674        0x3 CMakeFiles/kiibohd.elf.dir/Macro/PartialMap/macro.c.o
                0x000000000000a674                rm76_guide
 .rodata.rm48_guide
                0x000000000000a677        0x4 CMakeFiles/kiibohd.elf.dir/Macro/PartialMap/macro.c.o
                0x000000000000a677                rm48_guide
 *fill*         0x000000000000a67b        0x1 
 .rodata.layer2_tl_0x2A
                0x000000000000a67c        0x8 CMakeFiles/kiibohd.elf.dir/Macro/PartialMap/macro.c.o
                0x000000000000a67c                layer2_tl_0x2A
 .rodata.layer2_tl_0x2B
                0x000000000000a684        0x8 CMakeFiles/kiibohd.elf.dir/Macro/PartialMap/macro.c.o
                0x000000000000a684                layer2_tl_0x2B
 .rodata.layer2_tl_0x2C
                0x000000000000a68c        0x4 CMakeFiles/kiibohd.elf.dir/Macro/PartialMap/macro.c.o
                0x000000000000a68c                layer2_tl_0x2C
 .rodata.layer2_tl_0x2D
                0x000000000000a690        0x4 CMakeFiles/kiibohd.elf.dir/Macro/PartialMap/macro.c.o
                0x000000000000a690                layer2_tl_0x2D
 .rodata.layer2_tl_0x2E
                0x000000000000a694        0x4 CMakeFiles/kiibohd.elf.dir/Macro/PartialMap/macro.c.o
                0x000000000000a694                layer2_tl_0x2E
 .rodata.layer1_tl_0x14
                0x000000000000a698        0x4 CMakeFiles/kiibohd.elf.dir/Macro/PartialMap/macro.c.o
                0x000000000000a698                layer1_tl_0x14
 .rodata.tm53_guide
                0x000000000000a69c        0x5 CMakeFiles/kiibohd.elf.dir/Macro/PartialMap/macro.c.o
                0x000000000000a69c                tm53_guide
 .rodata.tm25_guide
                0x000000000000a6a1        0x5 CMakeFiles/kiibohd.elf.dir/Macro/PartialMap/macro.c.o
                0x000000000000a6a1                tm25_guide
 *fill*         0x000000000000a6a6        0x2 
 .rodata.layer1_tl_0x30
                0x000000000000a6a8        0x8 CMakeFiles/kiibohd.elf.dir/Macro/PartialMap/macro.c.o
                0x000000000000a6a8                layer1_tl_0x30
 .rodata.tm77_guide
                0x000000000000a6b0        0x5 CMakeFiles/kiibohd.elf.dir/Macro/PartialMap/macro.c.o
                0x000000000000a6b0                tm77_guide
 .rodata.tm49_guide
                0x000000000000a6b5        0x5 CMakeFiles/kiibohd.elf.dir/Macro/PartialMap/macro.c.o
                0x000000000000a6b5                tm49_guide
 .rodata.rm78_guide
                0x000000000000a6ba        0x4 CMakeFiles/kiibohd.elf.dir/Macro/PartialMap/macro.c.o
                0x000000000000a6ba                rm78_guide
 .rodata.rm11_guide
                0x000000000000a6be        0x4 CMakeFiles/kiibohd.elf.dir/Macro/PartialMap/macro.c.o
                0x000000000000a6be                rm11_guide
 .rodata.rm52_guide
                0x000000000000a6c2        0x4 CMakeFiles/kiibohd.elf.dir/Macro/PartialMap/macro.c.o
                0x000000000000a6c2                rm52_guide
 *fill*         0x000000000000a6c6        0x2 
 .rodata.LayerIndex
                0x000000000000a6c8       0x24 CMakeFiles/kiibohd.elf.dir/Macro/PartialMap/macro.c.o
                0x000000000000a6c8                LayerIndex
 .rodata.tm74_guide
                0x000000000000a6ec        0x5 CMakeFiles/kiibohd.elf.dir/Macro/PartialMap/macro.c.o
                0x000000000000a6ec                tm74_guide
 .rodata.tm40_guide
                0x000000000000a6f1        0x5 CMakeFiles/kiibohd.elf.dir/Macro/PartialMap/macro.c.o
                0x000000000000a6f1                tm40_guide
 .rodata.tm12_guide
                0x000000000000a6f6        0x5 CMakeFiles/kiibohd.elf.dir/Macro/PartialMap/macro.c.o
                0x000000000000a6f6                tm12_guide
 .rodata.rm41_guide
                0x000000000000a6fb        0x4 CMakeFiles/kiibohd.elf.dir/Macro/PartialMap/macro.c.o
                0x000000000000a6fb                rm41_guide
 *fill*         0x000000000000a6ff        0x1 
 .rodata.layer2_tl_0x30
                0x000000000000a700        0x4 CMakeFiles/kiibohd.elf.dir/Macro/PartialMap/macro.c.o
                0x000000000000a700                layer2_tl_0x30
 .rodata.layer2_tl_0x31
                0x000000000000a704        0x4 CMakeFiles/kiibohd.elf.dir/Macro/PartialMap/macro.c.o
                0x000000000000a704                layer2_tl_0x31
 .rodata.layer2_tl_0x32
                0x000000000000a708        0x4 CMakeFiles/kiibohd.elf.dir/Macro/PartialMap/macro.c.o
                0x000000000000a708                layer2_tl_0x32
 .rodata.rm93_guide
                0x000000000000a70c        0x4 CMakeFiles/kiibohd.elf.dir/Macro/PartialMap/macro.c.o
                0x000000000000a70c                rm93_guide
 .rodata.layer2_tl_0x34
                0x000000000000a710        0x4 CMakeFiles/kiibohd.elf.dir/Macro/PartialMap/macro.c.o
                0x000000000000a710                layer2_tl_0x34
 .rodata.layer2_tl_0x35
                0x000000000000a714        0x8 CMakeFiles/kiibohd.elf.dir/Macro/PartialMap/macro.c.o
                0x000000000000a714                layer2_tl_0x35
 .rodata.rm65_guide
                0x000000000000a71c        0x4 CMakeFiles/kiibohd.elf.dir/Macro/PartialMap/macro.c.o
                0x000000000000a71c                rm65_guide
 .rodata.rm37_guide
                0x000000000000a720        0x4 CMakeFiles/kiibohd.elf.dir/Macro/PartialMap/macro.c.o
                0x000000000000a720                rm37_guide
 .rodata.layer2_tl_0x23
                0x000000000000a724        0x4 CMakeFiles/kiibohd.elf.dir/Macro/PartialMap/macro.c.o
                0x000000000000a724                layer2_tl_0x23
 .rodata.layer2_tl_0x24
                0x000000000000a728        0x4 CMakeFiles/kiibohd.elf.dir/Macro/PartialMap/macro.c.o
                0x000000000000a728                layer2_tl_0x24
 .rodata.tm100_guide
                0x000000000000a72c        0x5 CMakeFiles/kiibohd.elf.dir/Macro/PartialMap/macro.c.o
                0x000000000000a72c                tm100_guide
 .rodata.tm70_guide
                0x000000000000a731        0x5 CMakeFiles/kiibohd.elf.dir/Macro/PartialMap/macro.c.o
                0x000000000000a731                tm70_guide
 .rodata.tm26_guide
                0x000000000000a736        0x5 CMakeFiles/kiibohd.elf.dir/Macro/PartialMap/macro.c.o
                0x000000000000a736                tm26_guide
 .rodata.tm42_guide
                0x000000000000a73b        0x5 CMakeFiles/kiibohd.elf.dir/Macro/PartialMap/macro.c.o
                0x000000000000a73b                tm42_guide
 .rodata.tm94_guide
                0x000000000000a740        0x5 CMakeFiles/kiibohd.elf.dir/Macro/PartialMap/macro.c.o
                0x000000000000a740                tm94_guide
 .rodata.tm5_guide
                0x000000000000a745        0x5 CMakeFiles/kiibohd.elf.dir/Macro/PartialMap/macro.c.o
                0x000000000000a745                tm5_guide
 .rodata.tm66_guide
                0x000000000000a74a        0x5 CMakeFiles/kiibohd.elf.dir/Macro/PartialMap/macro.c.o
                0x000000000000a74a                tm66_guide
 .rodata.rm95_guide
                0x000000000000a74f        0x4 CMakeFiles/kiibohd.elf.dir/Macro/PartialMap/macro.c.o
                0x000000000000a74f                rm95_guide
 .rodata.tm38_guide
                0x000000000000a753        0x5 CMakeFiles/kiibohd.elf.dir/Macro/PartialMap/macro.c.o
                0x000000000000a753                tm38_guide
 .rodata.tm102_guide
                0x000000000000a758        0x5 CMakeFiles/kiibohd.elf.dir/Macro/PartialMap/macro.c.o
                0x000000000000a758                tm102_guide
 .rodata.rm59_guide
                0x000000000000a75d        0x4 CMakeFiles/kiibohd.elf.dir/Macro/PartialMap/macro.c.o
                0x000000000000a75d                rm59_guide
 *fill*         0x000000000000a761        0x3 
 .rodata.default_tl_0x11
                0x000000000000a764        0x8 CMakeFiles/kiibohd.elf.dir/Macro/PartialMap/macro.c.o
                0x000000000000a764                default_tl_0x11
 .rodata.layer2_tl_0x2F
                0x000000000000a76c        0x4 CMakeFiles/kiibohd.elf.dir/Macro/PartialMap/macro.c.o
                0x000000000000a76c                layer2_tl_0x2F
 .rodata.default_tl_0x15
                0x000000000000a770        0x8 CMakeFiles/kiibohd.elf.dir/Macro/PartialMap/macro.c.o
                0x000000000000a770                default_tl_0x15
 .rodata.rm30_guide
                0x000000000000a778        0x4 CMakeFiles/kiibohd.elf.dir/Macro/PartialMap/macro.c.o
                0x000000000000a778                rm30_guide
 .rodata.rm82_guide
                0x000000000000a77c        0x4 CMakeFiles/kiibohd.elf.dir/Macro/PartialMap/macro.c.o
                0x000000000000a77c                rm82_guide
 .rodata.rm54_guide
                0x000000000000a780        0x4 CMakeFiles/kiibohd.elf.dir/Macro/PartialMap/macro.c.o
                0x000000000000a780                rm54_guide
 .rodata.rm26_guide
                0x000000000000a784        0x4 CMakeFiles/kiibohd.elf.dir/Macro/PartialMap/macro.c.o
                0x000000000000a784                rm26_guide
 .rodata.layer2_tl_0x21
                0x000000000000a788        0x8 CMakeFiles/kiibohd.elf.dir/Macro/PartialMap/macro.c.o
                0x000000000000a788                layer2_tl_0x21
 .rodata.rm4_guide
                0x000000000000a790        0x4 CMakeFiles/kiibohd.elf.dir/Macro/PartialMap/macro.c.o
                0x000000000000a790                rm4_guide
 .rodata.rm8_guide
                0x000000000000a794        0x4 CMakeFiles/kiibohd.elf.dir/Macro/PartialMap/macro.c.o
                0x000000000000a794                rm8_guide
 .rodata.tm83_guide
                0x000000000000a798        0x5 CMakeFiles/kiibohd.elf.dir/Macro/PartialMap/macro.c.o
                0x000000000000a798                tm83_guide
 *fill*         0x000000000000a79d        0x3 
 .rodata.default_tl_0x1E
                0x000000000000a7a0        0x8 CMakeFiles/kiibohd.elf.dir/Macro/PartialMap/macro.c.o
                0x000000000000a7a0                default_tl_0x1E
 .rodata.tm27_guide
                0x000000000000a7a8        0x5 CMakeFiles/kiibohd.elf.dir/Macro/PartialMap/macro.c.o
                0x000000000000a7a8                tm27_guide
 .rodata.tm79_guide
                0x000000000000a7ad        0x5 CMakeFiles/kiibohd.elf.dir/Macro/PartialMap/macro.c.o
                0x000000000000a7ad                tm79_guide
 .rodata.rm13_guide
                0x000000000000a7b2        0x4 CMakeFiles/kiibohd.elf.dir/Macro/PartialMap/macro.c.o
                0x000000000000a7b2                rm13_guide
 .rodata.rm3_guide
                0x000000000000a7b6        0x4 CMakeFiles/kiibohd.elf.dir/Macro/PartialMap/macro.c.o
                0x000000000000a7b6                rm3_guide
 .rodata.rm96_guide
                0x000000000000a7ba        0x4 CMakeFiles/kiibohd.elf.dir/Macro/PartialMap/macro.c.o
                0x000000000000a7ba                rm96_guide
 .rodata.rm71_guide
                0x000000000000a7be        0x4 CMakeFiles/kiibohd.elf.dir/Macro/PartialMap/macro.c.o
                0x000000000000a7be                rm71_guide
 .rodata.tm14_guide
                0x000000000000a7c2        0x5 CMakeFiles/kiibohd.elf.dir/Macro/PartialMap/macro.c.o
                0x000000000000a7c2                tm14_guide
 .rodata.rm43_guide
                0x000000000000a7c7        0x4 CMakeFiles/kiibohd.elf.dir/Macro/PartialMap/macro.c.o
                0x000000000000a7c7                rm43_guide
 .rodata.rm15_guide
                0x000000000000a7cb        0x4 CMakeFiles/kiibohd.elf.dir/Macro/PartialMap/macro.c.o
                0x000000000000a7cb                rm15_guide
 .rodata.tm54_guide
                0x000000000000a7cf        0x5 CMakeFiles/kiibohd.elf.dir/Macro/PartialMap/macro.c.o
                0x000000000000a7cf                tm54_guide
 .rodata.rm67_guide
                0x000000000000a7d4        0x4 CMakeFiles/kiibohd.elf.dir/Macro/PartialMap/macro.c.o
                0x000000000000a7d4                rm67_guide
 .rodata.rm39_guide
                0x000000000000a7d8        0x4 CMakeFiles/kiibohd.elf.dir/Macro/PartialMap/macro.c.o
                0x000000000000a7d8                rm39_guide
 .rodata.layer2_tl_0x33
                0x000000000000a7dc        0x4 CMakeFiles/kiibohd.elf.dir/Macro/PartialMap/macro.c.o
                0x000000000000a7dc                layer2_tl_0x33
 .rodata.tm72_guide
                0x000000000000a7e0        0x5 CMakeFiles/kiibohd.elf.dir/Macro/PartialMap/macro.c.o
                0x000000000000a7e0                tm72_guide
 .rodata.rm6_guide
                0x000000000000a7e5        0x6 CMakeFiles/kiibohd.elf.dir/Macro/PartialMap/macro.c.o
                0x000000000000a7e5                rm6_guide
 .rodata.tm44_guide
                0x000000000000a7eb        0x5 CMakeFiles/kiibohd.elf.dir/Macro/PartialMap/macro.c.o
                0x000000000000a7eb                tm44_guide
 .rodata.tm16_guide
                0x000000000000a7f0        0x5 CMakeFiles/kiibohd.elf.dir/Macro/PartialMap/macro.c.o
                0x000000000000a7f0                tm16_guide
 .rodata.tm96_guide
                0x000000000000a7f5        0x5 CMakeFiles/kiibohd.elf.dir/Macro/PartialMap/macro.c.o
                0x000000000000a7f5                tm96_guide
 .rodata.rm63_guide
                0x000000000000a7fa        0x4 CMakeFiles/kiibohd.elf.dir/Macro/PartialMap/macro.c.o
                0x000000000000a7fa                rm63_guide
 .rodata.tm68_guide
                0x000000000000a7fe        0x5 CMakeFiles/kiibohd.elf.dir/Macro/PartialMap/macro.c.o
                0x000000000000a7fe                tm68_guide
 .rodata.rm97_guide
                0x000000000000a803        0x4 CMakeFiles/kiibohd.elf.dir/Macro/PartialMap/macro.c.o
                0x000000000000a803                rm97_guide
 .rodata.tm46_guide
                0x000000000000a807        0x5 CMakeFiles/kiibohd.elf.dir/Macro/PartialMap/macro.c.o
                0x000000000000a807                tm46_guide
 .rodata.tm21_guide
                0x000000000000a80c        0x5 CMakeFiles/kiibohd.elf.dir/Macro/PartialMap/macro.c.o
                0x000000000000a80c                tm21_guide
 .rodata.tm104_guide
                0x000000000000a811        0x5 CMakeFiles/kiibohd.elf.dir/Macro/PartialMap/macro.c.o
                0x000000000000a811                tm104_guide
 .rodata.rm2_guide
                0x000000000000a816        0x4 CMakeFiles/kiibohd.elf.dir/Macro/PartialMap/macro.c.o
                0x000000000000a816                rm2_guide
 .rodata.tm98_guide
                0x000000000000a81a        0x5 CMakeFiles/kiibohd.elf.dir/Macro/PartialMap/macro.c.o
                0x000000000000a81a                tm98_guide
 .rodata.tm31_guide
                0x000000000000a81f        0x5 CMakeFiles/kiibohd.elf.dir/Macro/PartialMap/macro.c.o
                0x000000000000a81f                tm31_guide
 .rodata.rm60_guide
                0x000000000000a824        0x4 CMakeFiles/kiibohd.elf.dir/Macro/PartialMap/macro.c.o
                0x000000000000a824                rm60_guide
 .rodata.rm24_guide
                0x000000000000a828        0x4 CMakeFiles/kiibohd.elf.dir/Macro/PartialMap/macro.c.o
                0x000000000000a828                rm24_guide
 .rodata.rm32_guide
                0x000000000000a82c        0x4 CMakeFiles/kiibohd.elf.dir/Macro/PartialMap/macro.c.o
                0x000000000000a82c                rm32_guide
 .rodata.rm84_guide
                0x000000000000a830        0x4 CMakeFiles/kiibohd.elf.dir/Macro/PartialMap/macro.c.o
                0x000000000000a830                rm84_guide
 .rodata.rm56_guide
                0x000000000000a834        0x4 CMakeFiles/kiibohd.elf.dir/Macro/PartialMap/macro.c.o
                0x000000000000a834                rm56_guide
 .rodata.rm28_guide
                0x000000000000a838        0x4 CMakeFiles/kiibohd.elf.dir/Macro/PartialMap/macro.c.o
                0x000000000000a838                rm28_guide
 .rodata.tm61_guide
                0x000000000000a83c        0x5 CMakeFiles/kiibohd.elf.dir/Macro/PartialMap/macro.c.o
                0x000000000000a83c                tm61_guide
 .rodata.tm33_guide
                0x000000000000a841        0x5 CMakeFiles/kiibohd.elf.dir/Macro/PartialMap/macro.c.o
                0x000000000000a841                tm33_guide
 .rodata.rm88_guide
                0x000000000000a846        0x4 CMakeFiles/kiibohd.elf.dir/Macro/PartialMap/macro.c.o
                0x000000000000a846                rm88_guide
 .rodata.tm85_guide
                0x000000000000a84a        0x5 CMakeFiles/kiibohd.elf.dir/Macro/PartialMap/macro.c.o
                0x000000000000a84a                tm85_guide
 .rodata.tm57_guide
                0x000000000000a84f        0x5 CMakeFiles/kiibohd.elf.dir/Macro/PartialMap/macro.c.o
                0x000000000000a84f                tm57_guide
 .rodata.rm86_guide
                0x000000000000a854        0x4 CMakeFiles/kiibohd.elf.dir/Macro/PartialMap/macro.c.o
                0x000000000000a854                rm86_guide
 .rodata.tm29_guide
                0x000000000000a858        0x5 CMakeFiles/kiibohd.elf.dir/Macro/PartialMap/macro.c.o
                0x000000000000a858                tm29_guide
 .rodata.rm1_guide
                0x000000000000a85d        0x4 CMakeFiles/kiibohd.elf.dir/Macro/PartialMap/macro.c.o
                0x000000000000a85d                rm1_guide
 .rodata.macroListCLIDict_DescEntry
                0x000000000000a861       0x2c CMakeFiles/kiibohd.elf.dir/Macro/PartialMap/macro.c.o
                0x000000000000a861                macroListCLIDict_DescEntry
 .rodata.tm20_guide
                0x000000000000a88d        0x5 CMakeFiles/kiibohd.elf.dir/Macro/PartialMap/macro.c.o
                0x000000000000a88d                tm20_guide
 .rodata.layerStateCLIDict_DescEntry
                0x000000000000a892       0x87 CMakeFiles/kiibohd.elf.dir/Macro/PartialMap/macro.c.o
                0x000000000000a892                layerStateCLIDict_DescEntry
 .rodata.rm73_guide
                0x000000000000a919        0x4 CMakeFiles/kiibohd.elf.dir/Macro/PartialMap/macro.c.o
                0x000000000000a919                rm73_guide
 .rodata.rm45_guide
                0x000000000000a91d        0x4 CMakeFiles/kiibohd.elf.dir/Macro/PartialMap/macro.c.o
                0x000000000000a91d                rm45_guide
 .rodata.rm17_guide
                0x000000000000a921        0x4 CMakeFiles/kiibohd.elf.dir/Macro/PartialMap/macro.c.o
                0x000000000000a921                rm17_guide
 *fill*         0x000000000000a925        0x3 
 .rodata.default_tl_0x42
                0x000000000000a928        0x8 CMakeFiles/kiibohd.elf.dir/Macro/PartialMap/macro.c.o
                0x000000000000a928                default_tl_0x42
 .rodata.rm69_guide
                0x000000000000a930        0x4 CMakeFiles/kiibohd.elf.dir/Macro/PartialMap/macro.c.o
                0x000000000000a930                rm69_guide
 .rodata.tm50_guide
                0x000000000000a934        0x5 CMakeFiles/kiibohd.elf.dir/Macro/PartialMap/macro.c.o
                0x000000000000a934                tm50_guide
 .rodata.rm0_guide
                0x000000000000a939        0x4 CMakeFiles/kiibohd.elf.dir/Macro/PartialMap/macro.c.o
                0x000000000000a939                rm0_guide
 *fill*         0x000000000000a93d        0x3 
 .rodata.default_tl_0x02
                0x000000000000a940        0x8 CMakeFiles/kiibohd.elf.dir/Macro/PartialMap/macro.c.o
                0x000000000000a940                default_tl_0x02
 .rodata.default_tl_0x03
                0x000000000000a948        0x8 CMakeFiles/kiibohd.elf.dir/Macro/PartialMap/macro.c.o
                0x000000000000a948                default_tl_0x03
 .rodata.default_tl_0x04
                0x000000000000a950        0x8 CMakeFiles/kiibohd.elf.dir/Macro/PartialMap/macro.c.o
                0x000000000000a950                default_tl_0x04
 .rodata.default_tl_0x05
                0x000000000000a958        0x8 CMakeFiles/kiibohd.elf.dir/Macro/PartialMap/macro.c.o
                0x000000000000a958                default_tl_0x05
 .rodata.default_tl_0x06
                0x000000000000a960        0x8 CMakeFiles/kiibohd.elf.dir/Macro/PartialMap/macro.c.o
                0x000000000000a960                default_tl_0x06
 .rodata.default_tl_0x07
                0x000000000000a968        0x8 CMakeFiles/kiibohd.elf.dir/Macro/PartialMap/macro.c.o
                0x000000000000a968                default_tl_0x07
 .rodata.default_tl_0x08
                0x000000000000a970        0x8 CMakeFiles/kiibohd.elf.dir/Macro/PartialMap/macro.c.o
                0x000000000000a970                default_tl_0x08
 .rodata.default_tl_0x09
                0x000000000000a978        0x4 CMakeFiles/kiibohd.elf.dir/Macro/PartialMap/macro.c.o
                0x000000000000a978                default_tl_0x09
 .rodata.tm7_guide
                0x000000000000a97c        0x5 CMakeFiles/kiibohd.elf.dir/Macro/PartialMap/macro.c.o
                0x000000000000a97c                tm7_guide
 .rodata.layerListCLIDict_DescEntry
                0x000000000000a981       0x17 CMakeFiles/kiibohd.elf.dir/Macro/PartialMap/macro.c.o
                0x000000000000a981                layerListCLIDict_DescEntry
 .rodata.default_tl_0x0A
                0x000000000000a998        0x4 CMakeFiles/kiibohd.elf.dir/Macro/PartialMap/macro.c.o
                0x000000000000a998                default_tl_0x0A
 .rodata.default_tl_0x0B
                0x000000000000a99c        0x8 CMakeFiles/kiibohd.elf.dir/Macro/PartialMap/macro.c.o
                0x000000000000a99c                default_tl_0x0B
 .rodata.default_tl_0x0C
                0x000000000000a9a4        0x8 CMakeFiles/kiibohd.elf.dir/Macro/PartialMap/macro.c.o
                0x000000000000a9a4                default_tl_0x0C
 .rodata.default_tl_0x0D
                0x000000000000a9ac        0x8 CMakeFiles/kiibohd.elf.dir/Macro/PartialMap/macro.c.o
                0x000000000000a9ac                default_tl_0x0D
 .rodata.default_tl_0x0E
                0x000000000000a9b4        0x8 CMakeFiles/kiibohd.elf.dir/Macro/PartialMap/macro.c.o
                0x000000000000a9b4                default_tl_0x0E
 .rodata.default_tl_0x0F
                0x000000000000a9bc        0x8 CMakeFiles/kiibohd.elf.dir/Macro/PartialMap/macro.c.o
                0x000000000000a9bc                default_tl_0x0F
 .rodata.tm106_guide
                0x000000000000a9c4        0x5 CMakeFiles/kiibohd.elf.dir/Macro/PartialMap/macro.c.o
                0x000000000000a9c4                tm106_guide
 .rodata.rm90_guide
                0x000000000000a9c9        0x4 CMakeFiles/kiibohd.elf.dir/Macro/PartialMap/macro.c.o
                0x000000000000a9c9                rm90_guide
 .rodata.rm62_guide
                0x000000000000a9cd        0x4 CMakeFiles/kiibohd.elf.dir/Macro/PartialMap/macro.c.o
                0x000000000000a9cd                rm62_guide
 .rodata.rm34_guide
                0x000000000000a9d1        0x4 CMakeFiles/kiibohd.elf.dir/Macro/PartialMap/macro.c.o
                0x000000000000a9d1                rm34_guide
 *fill*         0x000000000000a9d5        0x3 
 .rodata.default_tl_0x36
                0x000000000000a9d8        0x4 CMakeFiles/kiibohd.elf.dir/Macro/PartialMap/macro.c.o
                0x000000000000a9d8                default_tl_0x36
 .rodata.rm58_guide
                0x000000000000a9dc        0x4 CMakeFiles/kiibohd.elf.dir/Macro/PartialMap/macro.c.o
                0x000000000000a9dc                rm58_guide
 .rodata.tm91_guide
                0x000000000000a9e0        0x5 CMakeFiles/kiibohd.elf.dir/Macro/PartialMap/macro.c.o
                0x000000000000a9e0                tm91_guide
 .rodata.tm63_guide
                0x000000000000a9e5        0x5 CMakeFiles/kiibohd.elf.dir/Macro/PartialMap/macro.c.o
                0x000000000000a9e5                tm63_guide
 *fill*         0x000000000000a9ea        0x2 
 .rodata.default_tl_0x10
                0x000000000000a9ec        0x8 CMakeFiles/kiibohd.elf.dir/Macro/PartialMap/macro.c.o
                0x000000000000a9ec                default_tl_0x10
 .rodata.tm35_guide
                0x000000000000a9f4        0x5 CMakeFiles/kiibohd.elf.dir/Macro/PartialMap/macro.c.o
                0x000000000000a9f4                tm35_guide
 *fill*         0x000000000000a9f9        0x3 
 .rodata.default_tl_0x12
                0x000000000000a9fc        0x4 CMakeFiles/kiibohd.elf.dir/Macro/PartialMap/macro.c.o
                0x000000000000a9fc                default_tl_0x12
 .rodata.default_tl_0x13
                0x000000000000aa00        0x4 CMakeFiles/kiibohd.elf.dir/Macro/PartialMap/macro.c.o
                0x000000000000aa00                default_tl_0x13
 .rodata.default_tl_0x14
                0x000000000000aa04        0x4 CMakeFiles/kiibohd.elf.dir/Macro/PartialMap/macro.c.o
                0x000000000000aa04                default_tl_0x14
 .rodata.default_tl_0x16
                0x000000000000aa08        0x8 CMakeFiles/kiibohd.elf.dir/Macro/PartialMap/macro.c.o
                0x000000000000aa08                default_tl_0x16
 .rodata.default_tl_0x17
                0x000000000000aa10        0x8 CMakeFiles/kiibohd.elf.dir/Macro/PartialMap/macro.c.o
                0x000000000000aa10                default_tl_0x17
 .rodata.default_tl_0x18
                0x000000000000aa18        0x8 CMakeFiles/kiibohd.elf.dir/Macro/PartialMap/macro.c.o
                0x000000000000aa18                default_tl_0x18
 .rodata.default_tl_0x19
                0x000000000000aa20        0x8 CMakeFiles/kiibohd.elf.dir/Macro/PartialMap/macro.c.o
                0x000000000000aa20                default_tl_0x19
 .rodata.tm81_guide
                0x000000000000aa28        0x5 CMakeFiles/kiibohd.elf.dir/Macro/PartialMap/macro.c.o
                0x000000000000aa28                tm81_guide
 *fill*         0x000000000000aa2d        0x3 
 .rodata.default_tl_0x1A
                0x000000000000aa30        0x8 CMakeFiles/kiibohd.elf.dir/Macro/PartialMap/macro.c.o
                0x000000000000aa30                default_tl_0x1A
 .rodata.default_tl_0x1B
                0x000000000000aa38        0x8 CMakeFiles/kiibohd.elf.dir/Macro/PartialMap/macro.c.o
                0x000000000000aa38                default_tl_0x1B
 .rodata.default_tl_0x1C
                0x000000000000aa40        0x8 CMakeFiles/kiibohd.elf.dir/Macro/PartialMap/macro.c.o
                0x000000000000aa40                default_tl_0x1C
 .rodata.default_tl_0x1D
                0x000000000000aa48        0x8 CMakeFiles/kiibohd.elf.dir/Macro/PartialMap/macro.c.o
                0x000000000000aa48                default_tl_0x1D
 .rodata.tm69_guide
                0x000000000000aa50        0x5 CMakeFiles/kiibohd.elf.dir/Macro/PartialMap/macro.c.o
                0x000000000000aa50                tm69_guide
 *fill*         0x000000000000aa55        0x3 
 .rodata.default_tl_0x1F
                0x000000000000aa58        0x8 CMakeFiles/kiibohd.elf.dir/Macro/PartialMap/macro.c.o
                0x000000000000aa58                default_tl_0x1F
 .rodata.tm89_guide
                0x000000000000aa60        0x5 CMakeFiles/kiibohd.elf.dir/Macro/PartialMap/macro.c.o
                0x000000000000aa60                tm89_guide
 .rodata.tm24_guide
                0x000000000000aa65        0x5 CMakeFiles/kiibohd.elf.dir/Macro/PartialMap/macro.c.o
                0x000000000000aa65                tm24_guide
 .rodata.str1.1
                0x000000000000aa6a      0x647 CMakeFiles/kiibohd.elf.dir/Macro/PartialMap/macro.c.o
                                        0x673 (size before relaxing)
 .rodata.tm22_guide
                0x000000000000b0b1        0x5 CMakeFiles/kiibohd.elf.dir/Macro/PartialMap/macro.c.o
                0x000000000000b0b1                tm22_guide
 .rodata.rm51_guide
                0x000000000000b0b6        0x4 CMakeFiles/kiibohd.elf.dir/Macro/PartialMap/macro.c.o
                0x000000000000b0b6                rm51_guide
 .rodata.rm23_guide
                0x000000000000b0ba        0x4 CMakeFiles/kiibohd.elf.dir/Macro/PartialMap/macro.c.o
                0x000000000000b0ba                rm23_guide
 .rodata.rm75_guide
                0x000000000000b0be        0x4 CMakeFiles/kiibohd.elf.dir/Macro/PartialMap/macro.c.o
                0x000000000000b0be                rm75_guide
 .rodata.rm47_guide
                0x000000000000b0c2        0x4 CMakeFiles/kiibohd.elf.dir/Macro/PartialMap/macro.c.o
                0x000000000000b0c2                rm47_guide
 .rodata.rm19_guide
                0x000000000000b0c6        0x4 CMakeFiles/kiibohd.elf.dir/Macro/PartialMap/macro.c.o
                0x000000000000b0c6                rm19_guide
 .rodata.macroShowCLIDict_DescEntry
                0x000000000000b0ca       0x84 CMakeFiles/kiibohd.elf.dir/Macro/PartialMap/macro.c.o
                0x000000000000b0ca                macroShowCLIDict_DescEntry
 .rodata.tm80_guide
                0x000000000000b14e        0x5 CMakeFiles/kiibohd.elf.dir/Macro/PartialMap/macro.c.o
                0x000000000000b14e                tm80_guide
 .rodata.tm52_guide
                0x000000000000b153        0x5 CMakeFiles/kiibohd.elf.dir/Macro/PartialMap/macro.c.o
                0x000000000000b153                tm52_guide
 .rodata.default_tl_0x20
                0x000000000000b158        0x8 CMakeFiles/kiibohd.elf.dir/Macro/PartialMap/macro.c.o
                0x000000000000b158                default_tl_0x20
 .rodata.default_tl_0x21
                0x000000000000b160        0x8 CMakeFiles/kiibohd.elf.dir/Macro/PartialMap/macro.c.o
                0x000000000000b160                default_tl_0x21
 .rodata.default_tl_0x22
                0x000000000000b168        0x8 CMakeFiles/kiibohd.elf.dir/Macro/PartialMap/macro.c.o
                0x000000000000b168                default_tl_0x22
 .rodata.default_tl_0x23
                0x000000000000b170        0x8 CMakeFiles/kiibohd.elf.dir/Macro/PartialMap/macro.c.o
                0x000000000000b170                default_tl_0x23
 .rodata.default_tl_0x24
                0x000000000000b178        0x8 CMakeFiles/kiibohd.elf.dir/Macro/PartialMap/macro.c.o
                0x000000000000b178                default_tl_0x24
 .rodata.default_tl_0x25
                0x000000000000b180        0x8 CMakeFiles/kiibohd.elf.dir/Macro/PartialMap/macro.c.o
                0x000000000000b180                default_tl_0x25
 .rodata.default_tl_0x26
                0x000000000000b188        0x8 CMakeFiles/kiibohd.elf.dir/Macro/PartialMap/macro.c.o
                0x000000000000b188                default_tl_0x26
 .rodata.default_tl_0x27
                0x000000000000b190        0x8 CMakeFiles/kiibohd.elf.dir/Macro/PartialMap/macro.c.o
                0x000000000000b190                default_tl_0x27
 .rodata.default_tl_0x28
                0x000000000000b198        0x8 CMakeFiles/kiibohd.elf.dir/Macro/PartialMap/macro.c.o
                0x000000000000b198                default_tl_0x28
 .rodata.default_tl_0x29
                0x000000000000b1a0        0x8 CMakeFiles/kiibohd.elf.dir/Macro/PartialMap/macro.c.o
                0x000000000000b1a0                default_tl_0x29
 .rodata.tm9_guide
                0x000000000000b1a8        0x5 CMakeFiles/kiibohd.elf.dir/Macro/PartialMap/macro.c.o
                0x000000000000b1a8                tm9_guide
 .rodata.rm10_guide
                0x000000000000b1ad        0x4 CMakeFiles/kiibohd.elf.dir/Macro/PartialMap/macro.c.o
                0x000000000000b1ad                rm10_guide
 *fill*         0x000000000000b1b1        0x3 
 .rodata.default_tl_0x2A
                0x000000000000b1b4        0x8 CMakeFiles/kiibohd.elf.dir/Macro/PartialMap/macro.c.o
                0x000000000000b1b4                default_tl_0x2A
 .rodata.str1.1
                0x000000000000b1bc       0xb3 CMakeFiles/kiibohd.elf.dir/Macro/PartialMap/trigger.c.o
 .rodata.kbdProtocolCLIDict_DescEntry
                0x000000000000b26f       0x33 CMakeFiles/kiibohd.elf.dir/Output/pjrcUSB/output_com.c.o
                0x000000000000b26f                kbdProtocolCLIDict_DescEntry
 .rodata.CSWTCH.80
                0x000000000000b2a2        0x8 CMakeFiles/kiibohd.elf.dir/Output/pjrcUSB/output_com.c.o
 .rodata.CSWTCH.81
                0x000000000000b2aa       0x30 CMakeFiles/kiibohd.elf.dir/Output/pjrcUSB/output_com.c.o
 .rodata.CSWTCH.78
                0x000000000000b2da       0x70 CMakeFiles/kiibohd.elf.dir/Output/pjrcUSB/output_com.c.o
 .rodata.outputCLIDictName
                0x000000000000b34a       0x14 CMakeFiles/kiibohd.elf.dir/Output/pjrcUSB/output_com.c.o
                0x000000000000b34a                outputCLIDictName
 .rodata.CSWTCH.79
                0x000000000000b35e       0x70 CMakeFiles/kiibohd.elf.dir/Output/pjrcUSB/output_com.c.o
 *fill*         0x000000000000b3ce        0x2 
 .rodata.outputCLIDict
                0x000000000000b3d0       0x54 CMakeFiles/kiibohd.elf.dir/Output/pjrcUSB/output_com.c.o
                0x000000000000b3d0                outputCLIDict
 .rodata.setModCLIDict_DescEntry
                0x000000000000b424       0x61 CMakeFiles/kiibohd.elf.dir/Output/pjrcUSB/output_com.c.o
                0x000000000000b424                setModCLIDict_DescEntry
 .rodata.str1.1
                0x000000000000b485      0x332 CMakeFiles/kiibohd.elf.dir/Output/pjrcUSB/output_com.c.o
                                        0x335 (size before relaxing)
 .rodata.outputDebugCLIDict_DescEntry
                0x000000000000b7b7       0x1a CMakeFiles/kiibohd.elf.dir/Output/pjrcUSB/output_com.c.o
                0x000000000000b7b7                outputDebugCLIDict_DescEntry
 .rodata.setKeysCLIDict_DescEntry
                0x000000000000b7d1       0x56 CMakeFiles/kiibohd.elf.dir/Output/pjrcUSB/output_com.c.o
                0x000000000000b7d1                setKeysCLIDict_DescEntry
 .rodata.CSWTCH.76
                0x000000000000b827       0x2f CMakeFiles/kiibohd.elf.dir/Output/pjrcUSB/output_com.c.o
 .rodata.CSWTCH.77
                0x000000000000b856       0x2f CMakeFiles/kiibohd.elf.dir/Output/pjrcUSB/output_com.c.o
 .rodata.CSWTCH.82
                0x000000000000b885       0x30 CMakeFiles/kiibohd.elf.dir/Output/pjrcUSB/output_com.c.o
 .rodata.readLEDsCLIDict_DescEntry
                0x000000000000b8b5       0x40 CMakeFiles/kiibohd.elf.dir/Output/pjrcUSB/output_com.c.o
                0x000000000000b8b5                readLEDsCLIDict_DescEntry
 .rodata.sendKeysCLIDict_DescEntry
                0x000000000000b8f5       0x37 CMakeFiles/kiibohd.elf.dir/Output/pjrcUSB/output_com.c.o
                0x000000000000b8f5                sendKeysCLIDict_DescEntry
 .rodata.usb_endpoint_config_table
                0x000000000000b92c        0x8 CMakeFiles/kiibohd.elf.dir/Output/pjrcUSB/arm/usb_desc.c.o
                0x000000000000b92c                usb_endpoint_config_table
 .rodata.usb_descriptor_list
                0x000000000000b934      0x138 CMakeFiles/kiibohd.elf.dir/Output/pjrcUSB/arm/usb_desc.c.o
                0x000000000000b934                usb_descriptor_list
 .rodata.str1.1
                0x000000000000ba6c       0xd2 CMakeFiles/kiibohd.elf.dir/Output/pjrcUSB/arm/usb_dev.c.o
                                         0xd9 (size before relaxing)
 .rodata.str1.1
                0x000000000000bb3e       0xb0 CMakeFiles/kiibohd.elf.dir/Output/pjrcUSB/arm/usb_keyboard.c.o
                                         0xb5 (size before relaxing)
 .rodata.str1.1
                0x0000000000000000       0x5c CMakeFiles/kiibohd.elf.dir/Output/pjrcUSB/arm/usb_mouse.c.o
 .rodata        0x000000000000bbee        0x4 CMakeFiles/kiibohd.elf.dir/Debug/cli/cli.c.o
 .rodata.helpCLIDict_DescEntry
                0x000000000000bbf2       0x18 CMakeFiles/kiibohd.elf.dir/Debug/cli/cli.c.o
                0x000000000000bbf2                helpCLIDict_DescEntry
 .rodata.restartCLIDict_DescEntry
                0x000000000000bc0a       0x47 CMakeFiles/kiibohd.elf.dir/Debug/cli/cli.c.o
                0x000000000000bc0a                restartCLIDict_DescEntry
 .rodata.clearCLIDict_DescEntry
                0x000000000000bc51       0x12 CMakeFiles/kiibohd.elf.dir/Debug/cli/cli.c.o
                0x000000000000bc51                clearCLIDict_DescEntry
 .rodata.reloadCLIDict_DescEntry
                0x000000000000bc63       0x2b CMakeFiles/kiibohd.elf.dir/Debug/cli/cli.c.o
                0x000000000000bc63                reloadCLIDict_DescEntry
 .rodata.versionCLIDict_DescEntry
                0x000000000000bc8e       0x29 CMakeFiles/kiibohd.elf.dir/Debug/cli/cli.c.o
                0x000000000000bc8e                versionCLIDict_DescEntry
 .rodata.str1.1
                0x000000000000bcb7      0x8be CMakeFiles/kiibohd.elf.dir/Debug/cli/cli.c.o
                                        0x968 (size before relaxing)
 .rodata.resetCLIDict_DescEntry
                0x000000000000c575       0x2e CMakeFiles/kiibohd.elf.dir/Debug/cli/cli.c.o
                0x000000000000c575                resetCLIDict_DescEntry
 *fill*         0x000000000000c5a3        0x1 
 .rodata.basicCLIDict
                0x000000000000c5a4       0x6c CMakeFiles/kiibohd.elf.dir/Debug/cli/cli.c.o
                0x000000000000c5a4                basicCLIDict
 .rodata.ledCLIDict_DescEntry
                0x000000000000c610       0x96 CMakeFiles/kiibohd.elf.dir/Debug/cli/cli.c.o
                0x000000000000c610                ledCLIDict_DescEntry
 .rodata.basicCLIDictName
                0x000000000000c6a6       0x11 CMakeFiles/kiibohd.elf.dir/Debug/cli/cli.c.o
                0x000000000000c6a6                basicCLIDictName
 .rodata.cliDebugCLIDict_DescEntry
                0x000000000000c6b7       0x3a CMakeFiles/kiibohd.elf.dir/Debug/cli/cli.c.o
                0x000000000000c6b7                cliDebugCLIDict_DescEntry
                0x000000000000c6f4                . = ALIGN (0x4)
 *fill*         0x000000000000c6f1        0x3 
 *(.init)

.glue_7         0x000000000000c6f4        0x0
 .glue_7        0x0000000000000000        0x0 linker stubs

.glue_7t        0x000000000000c6f4        0x0
 .glue_7t       0x0000000000000000        0x0 linker stubs

.vfp11_veneer   0x000000000000c6f4        0x0
 .vfp11_veneer  0x0000000000000000        0x0 linker stubs

.v4_bx          0x000000000000c6f4        0x0
 .v4_bx         0x0000000000000000        0x0 linker stubs

.iplt           0x000000000000c6f4        0x0
 .iplt          0x0000000000000000        0x0 CMakeFiles/kiibohd.elf.dir/main.c.o

.rel.dyn        0x000000000000c6f4        0x0
 .rel.iplt      0x0000000000000000        0x0 CMakeFiles/kiibohd.elf.dir/main.c.o

.ARM.exidx      0x000000000000c6f4        0x0
                0x000000000000c6f4                __exidx_start = .
 *(.ARM.exidx* .gnu.linkonce.armexidx.*)
                0x000000000000c6f4                __exidx_end = .
                0x000000000000c6f4                _etext = .

.usbdescriptortable
                0x000000001fff8000      0x120
                0x000000001fff8000                . = ALIGN (0x200)
 *(.usbdescriptortable*)
 .usbdescriptortable
                0x000000001fff8000      0x120 CMakeFiles/kiibohd.elf.dir/Output/pjrcUSB/arm/usb_dev.c.o

.dmabuffers     0x000000001fff8120        0x0
                0x000000001fff8120                . = ALIGN (0x4)
 *(.dmabuffers*)

.usbbuffers     0x000000001fff8120      0x870
                0x000000001fff8120                . = ALIGN (0x4)
 *(.usbbuffers*)
 .usbbuffers    0x000000001fff8120      0x870 CMakeFiles/kiibohd.elf.dir/Output/pjrcUSB/arm/usb_mem.c.o
                0x000000001fff8120                usb_buffer_memory

.data           0x000000001fff8990      0x778 load address 0x000000000000c6f4
                0x000000001fff8990                . = ALIGN (0x4)
                0x000000001fff8990                _sdata = .
 *(.data*)
 .data.I2C_RxBuffer
                0x000000001fff8990        0xc CMakeFiles/kiibohd.elf.dir/Scan/ISSILed/led_scan.c.o
                0x000000001fff8990                I2C_RxBuffer
 .data.I2C_TxBuffer
                0x000000001fff899c        0xc CMakeFiles/kiibohd.elf.dir/Scan/ISSILed/led_scan.c.o
                0x000000001fff899c                I2C_TxBuffer
 .data.Matrix_cols
                0x000000001fff89a8       0x12 CMakeFiles/kiibohd.elf.dir/Scan/MatrixARM/matrix_scan.c.o
                0x000000001fff89a8                Matrix_cols
 .data.Matrix_rows
                0x000000001fff89ba        0xa CMakeFiles/kiibohd.elf.dir/Scan/MatrixARM/matrix_scan.c.o
                0x000000001fff89ba                Matrix_rows
 .data.Matrix_type
                0x000000001fff89c4        0x1 CMakeFiles/kiibohd.elf.dir/Scan/MatrixARM/matrix_scan.c.o
                0x000000001fff89c4                Matrix_type
 .data.Connect_id
                0x000000001fff89c5        0x1 CMakeFiles/kiibohd.elf.dir/Scan/UARTConnect/connect_scan.c.o
                0x000000001fff89c5                Connect_id
 .data.Connect_baud
                0x000000001fff89c6        0x2 CMakeFiles/kiibohd.elf.dir/Scan/UARTConnect/connect_scan.c.o
                0x000000001fff89c6                Connect_baud
 .data.Connect_receiveFunctions
                0x000000001fff89c8       0x1c CMakeFiles/kiibohd.elf.dir/Scan/UARTConnect/connect_scan.c.o
                0x000000001fff89c8                Connect_receiveFunctions
 .data.layer1_scanMap
                0x000000001fff89e4       0xd0 CMakeFiles/kiibohd.elf.dir/Macro/PartialMap/macro.c.o
                0x000000001fff89e4                layer1_scanMap
 .data.default_scanMap
                0x000000001fff8ab4      0x160 CMakeFiles/kiibohd.elf.dir/Macro/PartialMap/macro.c.o
                0x000000001fff8ab4                default_scanMap
 .data.layer2_scanMap
                0x000000001fff8c14       0xc8 CMakeFiles/kiibohd.elf.dir/Macro/PartialMap/macro.c.o
                0x000000001fff8c14                layer2_scanMap
 .data.USBKeys_Protocol
                0x000000001fff8cdc        0x1 CMakeFiles/kiibohd.elf.dir/Output/pjrcUSB/output_com.c.o
                0x000000001fff8cdc                USBKeys_Protocol
 .data.USBKeys_Idle_Config
                0x000000001fff8cdd        0x1 CMakeFiles/kiibohd.elf.dir/Output/pjrcUSB/output_com.c.o
                0x000000001fff8cdd                USBKeys_Idle_Config
 .data.nkro_keyboard_report_desc
                0x000000001fff8cde       0x7d CMakeFiles/kiibohd.elf.dir/Output/pjrcUSB/arm/usb_desc.c.o
 .data.joystick_report_desc
                0x000000001fff8d5b       0x55 CMakeFiles/kiibohd.elf.dir/Output/pjrcUSB/arm/usb_desc.c.o
 .data.usb_string_cdc_data_name
                0x000000001fff8db0       0x38 CMakeFiles/kiibohd.elf.dir/Output/pjrcUSB/arm/usb_desc.c.o
                0x000000001fff8db0                usb_string_cdc_data_name
 .data.usb_string_joystick_name
                0x000000001fff8de8       0x14 CMakeFiles/kiibohd.elf.dir/Output/pjrcUSB/arm/usb_desc.c.o
                0x000000001fff8de8                usb_string_joystick_name
 .data.usb_string_mouse_name
                0x000000001fff8dfc        0xe CMakeFiles/kiibohd.elf.dir/Output/pjrcUSB/arm/usb_desc.c.o
                0x000000001fff8dfc                usb_string_mouse_name
 .data.usb_string_sys_ctrl_name
                0x000000001fff8e0a       0x18 CMakeFiles/kiibohd.elf.dir/Output/pjrcUSB/arm/usb_desc.c.o
                0x000000001fff8e0a                usb_string_sys_ctrl_name
 *fill*         0x000000001fff8e22        0x2 
 .data.usb_bMaxPower
                0x000000001fff8e24        0x4 CMakeFiles/kiibohd.elf.dir/Output/pjrcUSB/arm/usb_desc.c.o
                0x000000001fff8e24                usb_bMaxPower
 .data.config_descriptor
                0x000000001fff8e28       0xc8 CMakeFiles/kiibohd.elf.dir/Output/pjrcUSB/arm/usb_desc.c.o
 .data.mouse_report_desc
                0x000000001fff8ef0       0x33 CMakeFiles/kiibohd.elf.dir/Output/pjrcUSB/arm/usb_desc.c.o
 .data.sys_ctrl_report_desc
                0x000000001fff8f23       0x35 CMakeFiles/kiibohd.elf.dir/Output/pjrcUSB/arm/usb_desc.c.o
 .data.usb_string_keyboard_name
                0x000000001fff8f58       0x1e CMakeFiles/kiibohd.elf.dir/Output/pjrcUSB/arm/usb_desc.c.o
                0x000000001fff8f58                usb_string_keyboard_name
 .data.device_descriptor
                0x000000001fff8f76       0x12 CMakeFiles/kiibohd.elf.dir/Output/pjrcUSB/arm/usb_desc.c.o
 .data.usb_string_cdc_status_name
                0x000000001fff8f88       0x3c CMakeFiles/kiibohd.elf.dir/Output/pjrcUSB/arm/usb_desc.c.o
                0x000000001fff8f88                usb_string_cdc_status_name
 .data.usb_string_manufacturer_name_default
                0x000000001fff8fc4       0x12 CMakeFiles/kiibohd.elf.dir/Output/pjrcUSB/arm/usb_desc.c.o
                0x000000001fff8fc4                usb_string_manufacturer_name_default
                0x000000001fff8fc4                usb_string_manufacturer_name
 .data.usb_string_nkro_keyboard_name
                0x000000001fff8fd6       0x1e CMakeFiles/kiibohd.elf.dir/Output/pjrcUSB/arm/usb_desc.c.o
                0x000000001fff8fd6                usb_string_nkro_keyboard_name
 .data.usb_string_product_name_default
                0x000000001fff8ff4       0x6e CMakeFiles/kiibohd.elf.dir/Output/pjrcUSB/arm/usb_desc.c.o
                0x000000001fff8ff4                usb_string_product_name
                0x000000001fff8ff4                usb_string_product_name_default
 .data.keyboard_report_desc
                0x000000001fff9062       0x3f CMakeFiles/kiibohd.elf.dir/Output/pjrcUSB/arm/usb_desc.c.o
 *fill*         0x000000001fff90a1        0x1 
 .data.string0  0x000000001fff90a2        0x4 CMakeFiles/kiibohd.elf.dir/Output/pjrcUSB/arm/usb_desc.c.o
                0x000000001fff90a2                string0
 .data.usb_string_serial_number_default
                0x000000001fff90a6       0x54 CMakeFiles/kiibohd.elf.dir/Output/pjrcUSB/arm/usb_desc.c.o
                0x000000001fff90a6                usb_string_serial_number_default
                0x000000001fff90a6                usb_string_serial_number
 *fill*         0x000000001fff90fa        0x2 
 .data.usb_buffer_available
                0x000000001fff90fc        0x4 CMakeFiles/kiibohd.elf.dir/Output/pjrcUSB/arm/usb_mem.c.o
 .data.usb_cdc_line_coding
                0x000000001fff9100        0x7 CMakeFiles/kiibohd.elf.dir/Output/pjrcUSB/arm/usb_serial.c.o
                0x000000001fff9100                usb_cdc_line_coding
                0x000000001fff9108                . = ALIGN (0x4)
 *fill*         0x000000001fff9107        0x1 
                0x000000001fff9108                _edata = .

.igot.plt       0x000000001fff9108        0x0 load address 0x000000000000ce6c
 .igot.plt      0x0000000000000000        0x0 CMakeFiles/kiibohd.elf.dir/main.c.o

.noinit
 *(.noinit*)

.bss            0x000000001fff9108     0x1310 load address 0x000000000000ce6c
                0x000000001fff9108                . = ALIGN (0x4)
                0x000000001fff9108                _sbss = .
 *(.bss*)
 .bss.systick_millis_count
                0x000000001fff9108        0x4 CMakeFiles/kiibohd.elf.dir/Lib/delay.c.o
                0x000000001fff9108                systick_millis_count
 .bss.LED_currentEvent
                0x000000001fff910c        0x4 CMakeFiles/kiibohd.elf.dir/Scan/ISSILed/led_scan.c.o
                0x000000001fff910c                LED_currentEvent
 .bss.LED_control_timer
                0x000000001fff9110        0x1 CMakeFiles/kiibohd.elf.dir/Scan/ISSILed/led_scan.c.o
                0x000000001fff9110                LED_control_timer
 *fill*         0x000000001fff9111        0x1 
 .bss.matrixCurScans
                0x000000001fff9112        0x2 CMakeFiles/kiibohd.elf.dir/Scan/MatrixARM/matrix_scan.c.o
                0x000000001fff9112                matrixCurScans
 .bss.matrixPrevScans
                0x000000001fff9114        0x2 CMakeFiles/kiibohd.elf.dir/Scan/MatrixARM/matrix_scan.c.o
                0x000000001fff9114                matrixPrevScans
 .bss.matrixMaxScans
                0x000000001fff9116        0x2 CMakeFiles/kiibohd.elf.dir/Scan/MatrixARM/matrix_scan.c.o
                0x000000001fff9116                matrixMaxScans
 .bss.matrixDebugMode
                0x000000001fff9118        0x1 CMakeFiles/kiibohd.elf.dir/Scan/MatrixARM/matrix_scan.c.o
                0x000000001fff9118                matrixDebugMode
 *fill*         0x000000001fff9119        0x1 
 .bss.matrixDebugStateCounter
                0x000000001fff911a        0x2 CMakeFiles/kiibohd.elf.dir/Scan/MatrixARM/matrix_scan.c.o
                0x000000001fff911a                matrixDebugStateCounter
 .bss.LCD_layerStack_prevSize
                0x000000001fff911c        0x2 CMakeFiles/kiibohd.elf.dir/Scan/STLcd/lcd_scan.c.o
                0x000000001fff911c                LCD_layerStack_prevSize
 .bss.LCD_layerStack_prevTop
                0x000000001fff911e        0x2 CMakeFiles/kiibohd.elf.dir/Scan/STLcd/lcd_scan.c.o
                0x000000001fff911e                LCD_layerStack_prevTop
 .bss.Connect_lastCheck
                0x000000001fff9120        0x4 CMakeFiles/kiibohd.elf.dir/Scan/UARTConnect/connect_scan.c.o
                0x000000001fff9120                Connect_lastCheck
 .bss.Connect_cableOkMaster
                0x000000001fff9124        0x1 CMakeFiles/kiibohd.elf.dir/Scan/UARTConnect/connect_scan.c.o
                0x000000001fff9124                Connect_cableOkMaster
 .bss.uarts_configured
                0x000000001fff9125        0x1 CMakeFiles/kiibohd.elf.dir/Scan/UARTConnect/connect_scan.c.o
                0x000000001fff9125                uarts_configured
 .bss.Connect_baudFine
                0x000000001fff9126        0x2 CMakeFiles/kiibohd.elf.dir/Scan/UARTConnect/connect_scan.c.o
                0x000000001fff9126                Connect_baudFine
 .bss.Connect_cableFaultsSlave
                0x000000001fff9128        0x4 CMakeFiles/kiibohd.elf.dir/Scan/UARTConnect/connect_scan.c.o
                0x000000001fff9128                Connect_cableFaultsSlave
 .bss.Connect_cableChecksMaster
                0x000000001fff912c        0x4 CMakeFiles/kiibohd.elf.dir/Scan/UARTConnect/connect_scan.c.o
                0x000000001fff912c                Connect_cableChecksMaster
 .bss.Connect_cableFaultsMaster
                0x000000001fff9130        0x4 CMakeFiles/kiibohd.elf.dir/Scan/UARTConnect/connect_scan.c.o
                0x000000001fff9130                Connect_cableFaultsMaster
 .bss.Connect_maxId
                0x000000001fff9134        0x1 CMakeFiles/kiibohd.elf.dir/Scan/UARTConnect/connect_scan.c.o
                0x000000001fff9134                Connect_maxId
 .bss.Connect_debug
                0x000000001fff9135        0x1 CMakeFiles/kiibohd.elf.dir/Scan/UARTConnect/connect_scan.c.o
                0x000000001fff9135                Connect_debug
 *fill*         0x000000001fff9136        0x2 
 .bss.Connect_cableChecksSlave
                0x000000001fff9138        0x4 CMakeFiles/kiibohd.elf.dir/Scan/UARTConnect/connect_scan.c.o
                0x000000001fff9138                Connect_cableChecksSlave
 .bss.Connect_cableOkSlave
                0x000000001fff913c        0x1 CMakeFiles/kiibohd.elf.dir/Scan/UARTConnect/connect_scan.c.o
                0x000000001fff913c                Connect_cableOkSlave
 .bss.Connect_override
                0x000000001fff913d        0x1 CMakeFiles/kiibohd.elf.dir/Scan/UARTConnect/connect_scan.c.o
                0x000000001fff913d                Connect_override
 .bss.Connect_master
                0x000000001fff913e        0x1 CMakeFiles/kiibohd.elf.dir/Scan/UARTConnect/connect_scan.c.o
                0x000000001fff913e                Connect_master
 *fill*         0x000000001fff913f        0x1 
 .bss.Scan_scanCount
                0x000000001fff9140        0x2 CMakeFiles/kiibohd.elf.dir/Scan/MDErgo1-CustomLogo/scan_loop.c.o
                0x000000001fff9140                Scan_scanCount
 .bss.macroStepCounter
                0x000000001fff9142        0x2 CMakeFiles/kiibohd.elf.dir/Macro/PartialMap/macro.c.o
                0x000000001fff9142                macroStepCounter
 .bss.macroLayerIndexStackSize
                0x000000001fff9144        0x2 CMakeFiles/kiibohd.elf.dir/Macro/PartialMap/macro.c.o
                0x000000001fff9144                macroLayerIndexStackSize
 .bss.macroTriggerListBufferSize
                0x000000001fff9146        0x1 CMakeFiles/kiibohd.elf.dir/Macro/PartialMap/macro.c.o
                0x000000001fff9146                macroTriggerListBufferSize
 *fill*         0x000000001fff9147        0x1 
 .bss.macroLayerIndexStack
                0x000000001fff9148        0x8 CMakeFiles/kiibohd.elf.dir/Macro/PartialMap/macro.c.o
                0x000000001fff9148                macroLayerIndexStack
 .bss.macroInterconnectCacheSize
                0x000000001fff9150        0x1 CMakeFiles/kiibohd.elf.dir/Macro/PartialMap/macro.c.o
                0x000000001fff9150                macroInterconnectCacheSize
 .bss.layerDebugMode
                0x000000001fff9151        0x1 CMakeFiles/kiibohd.elf.dir/Macro/PartialMap/macro.c.o
                0x000000001fff9151                layerDebugMode
 .bss.macroDebugMode
                0x000000001fff9152        0x1 CMakeFiles/kiibohd.elf.dir/Macro/PartialMap/macro.c.o
                0x000000001fff9152                macroDebugMode
 .bss.macroPauseMode
                0x000000001fff9153        0x1 CMakeFiles/kiibohd.elf.dir/Macro/PartialMap/macro.c.o
                0x000000001fff9153                macroPauseMode
 .bss.macroResultMacroPendingListSize
                0x000000001fff9154        0x2 CMakeFiles/kiibohd.elf.dir/Macro/PartialMap/result.c.o
                0x000000001fff9154                macroResultMacroPendingListSize
 .bss.macroResultMacroPendingList
                0x000000001fff9156       0xc4 CMakeFiles/kiibohd.elf.dir/Macro/PartialMap/result.c.o
                0x000000001fff9156                macroResultMacroPendingList
 .bss.macroTriggerMacroPendingListSize
                0x000000001fff921a        0x2 CMakeFiles/kiibohd.elf.dir/Macro/PartialMap/trigger.c.o
                0x000000001fff921a                macroTriggerMacroPendingListSize
 .bss.macroTriggerMacroPendingList
                0x000000001fff921c       0xda CMakeFiles/kiibohd.elf.dir/Macro/PartialMap/trigger.c.o
                0x000000001fff921c                macroTriggerMacroPendingList
 .bss.Output_USBCurrent_Available
                0x000000001fff92f6        0x2 CMakeFiles/kiibohd.elf.dir/Output/pjrcUSB/output_com.c.o
                0x000000001fff92f6                Output_USBCurrent_Available
 .bss.USBKeys_Modifiers
                0x000000001fff92f8        0x1 CMakeFiles/kiibohd.elf.dir/Output/pjrcUSB/output_com.c.o
                0x000000001fff92f8                USBKeys_Modifiers
 .bss.USBKeys_LEDs
                0x000000001fff92f9        0x1 CMakeFiles/kiibohd.elf.dir/Output/pjrcUSB/output_com.c.o
                0x000000001fff92f9                USBKeys_LEDs
 .bss.USBKeys_Changed
                0x000000001fff92fa        0x1 CMakeFiles/kiibohd.elf.dir/Output/pjrcUSB/output_com.c.o
                0x000000001fff92fa                USBKeys_Changed
 *fill*         0x000000001fff92fb        0x1 
 .bss.USBMouse_Buttons
                0x000000001fff92fc        0x2 CMakeFiles/kiibohd.elf.dir/Output/pjrcUSB/output_com.c.o
                0x000000001fff92fc                USBMouse_Buttons
 .bss.USBMouse_Changed
                0x000000001fff92fe        0x1 CMakeFiles/kiibohd.elf.dir/Output/pjrcUSB/output_com.c.o
                0x000000001fff92fe                USBMouse_Changed
 *fill*         0x000000001fff92ff        0x1 
 .bss.Output_ExtCurrent_Available
                0x000000001fff9300        0x2 CMakeFiles/kiibohd.elf.dir/Output/pjrcUSB/output_com.c.o
                0x000000001fff9300                Output_ExtCurrent_Available
 .bss.USBMouse_Relative_x
                0x000000001fff9302        0x2 CMakeFiles/kiibohd.elf.dir/Output/pjrcUSB/output_com.c.o
                0x000000001fff9302                USBMouse_Relative_x
 .bss.USBMouse_Relative_y
                0x000000001fff9304        0x2 CMakeFiles/kiibohd.elf.dir/Output/pjrcUSB/output_com.c.o
                0x000000001fff9304                USBMouse_Relative_y
 .bss.USBKeys_Idle_Count
                0x000000001fff9306        0x1 CMakeFiles/kiibohd.elf.dir/Output/pjrcUSB/output_com.c.o
                0x000000001fff9306                USBKeys_Idle_Count
 .bss.USBKeys_Sent
                0x000000001fff9307        0x1 CMakeFiles/kiibohd.elf.dir/Output/pjrcUSB/output_com.c.o
                0x000000001fff9307                USBKeys_Sent
 .bss.Output_Available
                0x000000001fff9308        0x1 CMakeFiles/kiibohd.elf.dir/Output/pjrcUSB/output_com.c.o
                0x000000001fff9308                Output_Available
 .bss.USBKeys_SentCLI
                0x000000001fff9309        0x1 CMakeFiles/kiibohd.elf.dir/Output/pjrcUSB/output_com.c.o
                0x000000001fff9309                USBKeys_SentCLI
 .bss.USBKeys_ModifiersCLI
                0x000000001fff930a        0x1 CMakeFiles/kiibohd.elf.dir/Output/pjrcUSB/output_com.c.o
                0x000000001fff930a                USBKeys_ModifiersCLI
 .bss.Output_DebugMode
                0x000000001fff930b        0x1 CMakeFiles/kiibohd.elf.dir/Output/pjrcUSB/output_com.c.o
                0x000000001fff930b                Output_DebugMode
 .bss.usb_debug_descriptor
                0x000000001fff930c        0x1 CMakeFiles/kiibohd.elf.dir/Output/pjrcUSB/arm/usb_desc.c.o
 .bss.device_qualifier_descriptor
                0x000000001fff930d        0x1 CMakeFiles/kiibohd.elf.dir/Output/pjrcUSB/arm/usb_desc.c.o
 *fill*         0x000000001fff930e        0x2 
 .bss.ep0_tx_ptr
                0x000000001fff9310        0x4 CMakeFiles/kiibohd.elf.dir/Output/pjrcUSB/arm/usb_dev.c.o
 .bss.rx_last   0x000000001fff9314       0x20 CMakeFiles/kiibohd.elf.dir/Output/pjrcUSB/arm/usb_dev.c.o
 .bss.tx_state  0x000000001fff9334        0x8 CMakeFiles/kiibohd.elf.dir/Output/pjrcUSB/arm/usb_dev.c.o
 .bss.power_neg_delay
                0x000000001fff933c        0x1 CMakeFiles/kiibohd.elf.dir/Output/pjrcUSB/arm/usb_dev.c.o
 *fill*         0x000000001fff933d        0x1 
 .bss.ep0_tx_len
                0x000000001fff933e        0x2 CMakeFiles/kiibohd.elf.dir/Output/pjrcUSB/arm/usb_dev.c.o
 .bss.ep0_rx0_buf
                0x000000001fff9340       0x40 CMakeFiles/kiibohd.elf.dir/Output/pjrcUSB/arm/usb_dev.c.o
 .bss.rx_first  0x000000001fff9380       0x20 CMakeFiles/kiibohd.elf.dir/Output/pjrcUSB/arm/usb_dev.c.o
 .bss.ep0_tx_bdt_bank
                0x000000001fff93a0        0x1 CMakeFiles/kiibohd.elf.dir/Output/pjrcUSB/arm/usb_dev.c.o
 .bss.usb_reboot_timer
                0x000000001fff93a1        0x1 CMakeFiles/kiibohd.elf.dir/Output/pjrcUSB/arm/usb_dev.c.o
                0x000000001fff93a1                usb_reboot_timer
 *fill*         0x000000001fff93a2        0x2 
 .bss.ep0_rx1_buf
                0x000000001fff93a4       0x40 CMakeFiles/kiibohd.elf.dir/Output/pjrcUSB/arm/usb_dev.c.o
 .bss.tx_first  0x000000001fff93e4       0x20 CMakeFiles/kiibohd.elf.dir/Output/pjrcUSB/arm/usb_dev.c.o
 .bss.tx_last   0x000000001fff9404       0x20 CMakeFiles/kiibohd.elf.dir/Output/pjrcUSB/arm/usb_dev.c.o
 .bss.setup     0x000000001fff9424        0x8 CMakeFiles/kiibohd.elf.dir/Output/pjrcUSB/arm/usb_dev.c.o
 .bss.power_neg_time
                0x000000001fff942c        0x4 CMakeFiles/kiibohd.elf.dir/Output/pjrcUSB/arm/usb_dev.c.o
 .bss.usb_dev_sleep
                0x000000001fff9430        0x1 CMakeFiles/kiibohd.elf.dir/Output/pjrcUSB/arm/usb_dev.c.o
 .bss.usb_rx_memory_needed
                0x000000001fff9431        0x1 CMakeFiles/kiibohd.elf.dir/Output/pjrcUSB/arm/usb_dev.c.o
                0x000000001fff9431                usb_rx_memory_needed
 .bss.reply_buffer
                0x000000001fff9432        0x8 CMakeFiles/kiibohd.elf.dir/Output/pjrcUSB/arm/usb_dev.c.o
 .bss.usb_configuration
                0x000000001fff943a        0x1 CMakeFiles/kiibohd.elf.dir/Output/pjrcUSB/arm/usb_dev.c.o
                0x000000001fff943a                usb_configuration
 .bss.ep0_tx_data_toggle
                0x000000001fff943b        0x1 CMakeFiles/kiibohd.elf.dir/Output/pjrcUSB/arm/usb_dev.c.o
 .bss.transmit_previous_timeout
                0x000000001fff943c        0x1 CMakeFiles/kiibohd.elf.dir/Output/pjrcUSB/arm/usb_keyboard.c.o
 .bss.transmit_previous_timeout
                0x000000001fff943d        0x1 CMakeFiles/kiibohd.elf.dir/Output/pjrcUSB/arm/usb_mouse.c.o
 .bss.usb_cdc_transmit_flush_timer
                0x000000001fff943e        0x1 CMakeFiles/kiibohd.elf.dir/Output/pjrcUSB/arm/usb_serial.c.o
                0x000000001fff943e                usb_cdc_transmit_flush_timer
 .bss.tx_noautoflush
                0x000000001fff943f        0x1 CMakeFiles/kiibohd.elf.dir/Output/pjrcUSB/arm/usb_serial.c.o
 .bss.tx_packet
                0x000000001fff9440        0x4 CMakeFiles/kiibohd.elf.dir/Output/pjrcUSB/arm/usb_serial.c.o
 .bss.transmit_previous_timeout
                0x000000001fff9444        0x1 CMakeFiles/kiibohd.elf.dir/Output/pjrcUSB/arm/usb_serial.c.o
 *fill*         0x000000001fff9445        0x3 
 .bss.rx_packet
                0x000000001fff9448        0x4 CMakeFiles/kiibohd.elf.dir/Output/pjrcUSB/arm/usb_serial.c.o
 .bss.usb_cdc_line_rtsdtr
                0x000000001fff944c        0x1 CMakeFiles/kiibohd.elf.dir/Output/pjrcUSB/arm/usb_serial.c.o
                0x000000001fff944c                usb_cdc_line_rtsdtr
 *(COMMON)
 *fill*         0x000000001fff944d        0x3 
 COMMON         0x000000001fff9450      0x4a9 CMakeFiles/kiibohd.elf.dir/main.c.o
                0x000000001fff9450                CLIHexDebugMode
                0x000000001fff9451                CLIHistoryCurrent
                0x000000001fff9452                CLILEDState
                0x000000001fff9453                CLIDictionariesUsed
                0x000000001fff9454                CLIHistoryBuffer
                0x000000001fff983c                CLILineBuffer
                0x000000001fff98a1                CLIHistoryHead
                0x000000001fff98a4                CLIDict
                0x000000001fff98cc                CLIHistoryTail
                0x000000001fff98d0                CLIDictNames
                0x000000001fff98f8                CLILineBufferCurrent
 COMMON         0x000000001fff98f9      0x2ea CMakeFiles/kiibohd.elf.dir/Scan/ISSILed/led_scan.c.o
                0x000000001fff98f9                I2C_RxBufferPtr
                0x000000001fff9a25                LED_pageBuffer
                0x000000001fff9ab7                I2C_TxBufferPtr
 COMMON         0x000000001fff9be3      0x13b CMakeFiles/kiibohd.elf.dir/Scan/MatrixARM/matrix_scan.c.o
                0x000000001fff9be3                Matrix_scanArray
 COMMON         0x000000001fff9d1e      0x23a CMakeFiles/kiibohd.elf.dir/Scan/UARTConnect/connect_scan.c.o
                0x000000001fff9d1e                uart_tx_buf
                0x000000001fff9e24                Connect_receive_RemoteCapabilityBuffer
                0x000000001fff9e2a                uart_tx_status
                0x000000001fff9e2e                Connect_receive_RemoteCapabilityArgs
                0x000000001fff9e47                Connect_receive_ScanCodeDeviceId
                0x000000001fff9e48                uart_rx_status
                0x000000001fff9e50                uart_rx_buf
                0x000000001fff9f54                Connect_receive_ScanCodeBuffer
                0x000000001fff9f57                Connect_receive_ScanCodeBufferPos
 COMMON         0x000000001fff9f58      0x474 CMakeFiles/kiibohd.elf.dir/Macro/PartialMap/macro.c.o
                0x000000001fff9f58                Macro_rotationLayer
                0x000000001fff9f5a                macroTriggerListBuffer
                0x000000001fffa065                ResultMacroRecordList
                0x000000001fffa18b                LayerState
                0x000000001fffa18e                macroTriggerListLayerCache
                0x000000001fffa1e7                macroInterconnectCache
                0x000000001fffa2f2                TriggerMacroRecordList
 COMMON         0x000000001fffa3cc       0x3a CMakeFiles/kiibohd.elf.dir/Output/pjrcUSB/output_com.c.o
                0x000000001fffa3cc                USBKeys_SysCtrl
                0x000000001fffa3cd                USBKeys_Keys
                0x000000001fffa3e8                USBKeys_KeysCLI
                0x000000001fffa404                USBKeys_ConsCtrl
 COMMON         0x000000001fffa406       0x10 CMakeFiles/kiibohd.elf.dir/Output/pjrcUSB/arm/usb_dev.c.o
                0x000000001fffa406                usb_rx_byte_count_data
                0x000000001fffa418                . = ALIGN (0x4)
 *fill*         0x000000001fffa416        0x2 
                0x000000001fffa418                _ebss = .
                0x000000001fffa418                __bss_end = .
                0x0000000020008000                _estack = (ORIGIN (RAM) + 0x10000)
OUTPUT(kiibohd.elf elf32-littlearm)

.debug_info     0x0000000000000000    0x11242
 .debug_info    0x0000000000000000      0x2d9 CMakeFiles/kiibohd.elf.dir/main.c.o
 .debug_info    0x00000000000002d9      0x645 CMakeFiles/kiibohd.elf.dir/Lib/mk20dx.c.o
 .debug_info    0x000000000000091e      0x145 CMakeFiles/kiibohd.elf.dir/Lib/delay.c.o
 .debug_info    0x0000000000000a63     0x1a69 CMakeFiles/kiibohd.elf.dir/Scan/ISSILed/led_scan.c.o
 .debug_info    0x00000000000024cc      0xdf3 CMakeFiles/kiibohd.elf.dir/Scan/MatrixARM/matrix_scan.c.o
 .debug_info    0x00000000000032bf     0x11a9 CMakeFiles/kiibohd.elf.dir/Scan/STLcd/lcd_scan.c.o
 .debug_info    0x0000000000004468     0x24ff CMakeFiles/kiibohd.elf.dir/Scan/UARTConnect/connect_scan.c.o
 .debug_info    0x0000000000006967      0x454 CMakeFiles/kiibohd.elf.dir/Scan/MDErgo1-CustomLogo/scan_loop.c.o
 .debug_info    0x0000000000006dbb     0x4b8e CMakeFiles/kiibohd.elf.dir/Macro/PartialMap/macro.c.o
 .debug_info    0x000000000000b949      0x40e CMakeFiles/kiibohd.elf.dir/Macro/PartialMap/result.c.o
 .debug_info    0x000000000000bd57      0x828 CMakeFiles/kiibohd.elf.dir/Macro/PartialMap/trigger.c.o
 .debug_info    0x000000000000c57f     0x100f CMakeFiles/kiibohd.elf.dir/Output/pjrcUSB/output_com.c.o
 .debug_info    0x000000000000d58e      0x3b4 CMakeFiles/kiibohd.elf.dir/Output/pjrcUSB/arm/usb_desc.c.o
 .debug_info    0x000000000000d942      0xc89 CMakeFiles/kiibohd.elf.dir/Output/pjrcUSB/arm/usb_dev.c.o
 .debug_info    0x000000000000e5cb      0x6d6 CMakeFiles/kiibohd.elf.dir/Output/pjrcUSB/arm/usb_keyboard.c.o
 .debug_info    0x000000000000eca1      0x23f CMakeFiles/kiibohd.elf.dir/Output/pjrcUSB/arm/usb_mem.c.o
 .debug_info    0x000000000000eee0      0x508 CMakeFiles/kiibohd.elf.dir/Output/pjrcUSB/arm/usb_mouse.c.o
 .debug_info    0x000000000000f3e8      0x5eb CMakeFiles/kiibohd.elf.dir/Output/pjrcUSB/arm/usb_serial.c.o
 .debug_info    0x000000000000f9d3     0x106e CMakeFiles/kiibohd.elf.dir/Debug/cli/cli.c.o
 .debug_info    0x0000000000010a41       0xd2 CMakeFiles/kiibohd.elf.dir/Debug/led/led.c.o
 .debug_info    0x0000000000010b13      0x72f CMakeFiles/kiibohd.elf.dir/Debug/print/print.c.o

.debug_abbrev   0x0000000000000000     0x303f
 .debug_abbrev  0x0000000000000000       0xf8 CMakeFiles/kiibohd.elf.dir/main.c.o
 .debug_abbrev  0x00000000000000f8      0x211 CMakeFiles/kiibohd.elf.dir/Lib/mk20dx.c.o
 .debug_abbrev  0x0000000000000309       0xd8 CMakeFiles/kiibohd.elf.dir/Lib/delay.c.o
 .debug_abbrev  0x00000000000003e1      0x3fd CMakeFiles/kiibohd.elf.dir/Scan/ISSILed/led_scan.c.o
 .debug_abbrev  0x00000000000007de      0x2d5 CMakeFiles/kiibohd.elf.dir/Scan/MatrixARM/matrix_scan.c.o
 .debug_abbrev  0x0000000000000ab3      0x3bf CMakeFiles/kiibohd.elf.dir/Scan/STLcd/lcd_scan.c.o
 .debug_abbrev  0x0000000000000e72      0x3a9 CMakeFiles/kiibohd.elf.dir/Scan/UARTConnect/connect_scan.c.o
 .debug_abbrev  0x000000000000121b      0x19c CMakeFiles/kiibohd.elf.dir/Scan/MDErgo1-CustomLogo/scan_loop.c.o
 .debug_abbrev  0x00000000000013b7      0x384 CMakeFiles/kiibohd.elf.dir/Macro/PartialMap/macro.c.o
 .debug_abbrev  0x000000000000173b      0x1c2 CMakeFiles/kiibohd.elf.dir/Macro/PartialMap/result.c.o
 .debug_abbrev  0x00000000000018fd      0x2b8 CMakeFiles/kiibohd.elf.dir/Macro/PartialMap/trigger.c.o
 .debug_abbrev  0x0000000000001bb5      0x2ec CMakeFiles/kiibohd.elf.dir/Output/pjrcUSB/output_com.c.o
 .debug_abbrev  0x0000000000001ea1       0xc8 CMakeFiles/kiibohd.elf.dir/Output/pjrcUSB/arm/usb_desc.c.o
 .debug_abbrev  0x0000000000001f69      0x3c2 CMakeFiles/kiibohd.elf.dir/Output/pjrcUSB/arm/usb_dev.c.o
 .debug_abbrev  0x000000000000232b      0x1ac CMakeFiles/kiibohd.elf.dir/Output/pjrcUSB/arm/usb_keyboard.c.o
 .debug_abbrev  0x00000000000024d7      0x165 CMakeFiles/kiibohd.elf.dir/Output/pjrcUSB/arm/usb_mem.c.o
 .debug_abbrev  0x000000000000263c      0x1fe CMakeFiles/kiibohd.elf.dir/Output/pjrcUSB/arm/usb_mouse.c.o
 .debug_abbrev  0x000000000000283a      0x27b CMakeFiles/kiibohd.elf.dir/Output/pjrcUSB/arm/usb_serial.c.o
 .debug_abbrev  0x0000000000002ab5      0x333 CMakeFiles/kiibohd.elf.dir/Debug/cli/cli.c.o
 .debug_abbrev  0x0000000000002de8       0x79 CMakeFiles/kiibohd.elf.dir/Debug/led/led.c.o
 .debug_abbrev  0x0000000000002e61      0x1de CMakeFiles/kiibohd.elf.dir/Debug/print/print.c.o

.debug_aranges  0x0000000000000000      0x8e8
 .debug_aranges
                0x0000000000000000       0x20 CMakeFiles/kiibohd.elf.dir/main.c.o
 .debug_aranges
                0x0000000000000020       0x88 CMakeFiles/kiibohd.elf.dir/Lib/mk20dx.c.o
 .debug_aranges
                0x00000000000000a8       0x30 CMakeFiles/kiibohd.elf.dir/Lib/delay.c.o
 .debug_aranges
                0x00000000000000d8       0xc8 CMakeFiles/kiibohd.elf.dir/Scan/ISSILed/led_scan.c.o
 .debug_aranges
                0x00000000000001a0       0x58 CMakeFiles/kiibohd.elf.dir/Scan/MatrixARM/matrix_scan.c.o
 .debug_aranges
                0x00000000000001f8       0x90 CMakeFiles/kiibohd.elf.dir/Scan/STLcd/lcd_scan.c.o
 .debug_aranges
                0x0000000000000288      0x100 CMakeFiles/kiibohd.elf.dir/Scan/UARTConnect/connect_scan.c.o
 .debug_aranges
                0x0000000000000388       0x40 CMakeFiles/kiibohd.elf.dir/Scan/MDErgo1-CustomLogo/scan_loop.c.o
 .debug_aranges
                0x00000000000003c8      0x100 CMakeFiles/kiibohd.elf.dir/Macro/PartialMap/macro.c.o
 .debug_aranges
                0x00000000000004c8       0x30 CMakeFiles/kiibohd.elf.dir/Macro/PartialMap/result.c.o
 .debug_aranges
                0x00000000000004f8       0x40 CMakeFiles/kiibohd.elf.dir/Macro/PartialMap/trigger.c.o
 .debug_aranges
                0x0000000000000538       0xe8 CMakeFiles/kiibohd.elf.dir/Output/pjrcUSB/output_com.c.o
 .debug_aranges
                0x0000000000000620       0x18 CMakeFiles/kiibohd.elf.dir/Output/pjrcUSB/arm/usb_desc.c.o
 .debug_aranges
                0x0000000000000638       0x70 CMakeFiles/kiibohd.elf.dir/Output/pjrcUSB/arm/usb_dev.c.o
 .debug_aranges
                0x00000000000006a8       0x20 CMakeFiles/kiibohd.elf.dir/Output/pjrcUSB/arm/usb_keyboard.c.o
 .debug_aranges
                0x00000000000006c8       0x28 CMakeFiles/kiibohd.elf.dir/Output/pjrcUSB/arm/usb_mem.c.o
 .debug_aranges
                0x00000000000006f0       0x38 CMakeFiles/kiibohd.elf.dir/Output/pjrcUSB/arm/usb_mouse.c.o
 .debug_aranges
                0x0000000000000728       0x60 CMakeFiles/kiibohd.elf.dir/Output/pjrcUSB/arm/usb_serial.c.o
 .debug_aranges
                0x0000000000000788       0xa0 CMakeFiles/kiibohd.elf.dir/Debug/cli/cli.c.o
 .debug_aranges
                0x0000000000000828       0x28 CMakeFiles/kiibohd.elf.dir/Debug/led/led.c.o
 .debug_aranges
                0x0000000000000850       0x98 CMakeFiles/kiibohd.elf.dir/Debug/print/print.c.o

.debug_ranges   0x0000000000000000      0xbb8
 .debug_ranges  0x0000000000000000       0x10 CMakeFiles/kiibohd.elf.dir/main.c.o
 .debug_ranges  0x0000000000000010       0x78 CMakeFiles/kiibohd.elf.dir/Lib/mk20dx.c.o
 .debug_ranges  0x0000000000000088       0x20 CMakeFiles/kiibohd.elf.dir/Lib/delay.c.o
 .debug_ranges  0x00000000000000a8      0x100 CMakeFiles/kiibohd.elf.dir/Scan/ISSILed/led_scan.c.o
 .debug_ranges  0x00000000000001a8       0x48 CMakeFiles/kiibohd.elf.dir/Scan/MatrixARM/matrix_scan.c.o
 .debug_ranges  0x00000000000001f0       0x98 CMakeFiles/kiibohd.elf.dir/Scan/STLcd/lcd_scan.c.o
 .debug_ranges  0x0000000000000288      0x1e8 CMakeFiles/kiibohd.elf.dir/Scan/UARTConnect/connect_scan.c.o
 .debug_ranges  0x0000000000000470       0x30 CMakeFiles/kiibohd.elf.dir/Scan/MDErgo1-CustomLogo/scan_loop.c.o
 .debug_ranges  0x00000000000004a0      0x1e8 CMakeFiles/kiibohd.elf.dir/Macro/PartialMap/macro.c.o
 .debug_ranges  0x0000000000000688       0x40 CMakeFiles/kiibohd.elf.dir/Macro/PartialMap/result.c.o
 .debug_ranges  0x00000000000006c8       0xe0 CMakeFiles/kiibohd.elf.dir/Macro/PartialMap/trigger.c.o
 .debug_ranges  0x00000000000007a8       0xf0 CMakeFiles/kiibohd.elf.dir/Output/pjrcUSB/output_com.c.o
 .debug_ranges  0x0000000000000898       0x80 CMakeFiles/kiibohd.elf.dir/Output/pjrcUSB/arm/usb_dev.c.o
 .debug_ranges  0x0000000000000918       0x10 CMakeFiles/kiibohd.elf.dir/Output/pjrcUSB/arm/usb_keyboard.c.o
 .debug_ranges  0x0000000000000928       0x18 CMakeFiles/kiibohd.elf.dir/Output/pjrcUSB/arm/usb_mem.c.o
 .debug_ranges  0x0000000000000940       0x28 CMakeFiles/kiibohd.elf.dir/Output/pjrcUSB/arm/usb_mouse.c.o
 .debug_ranges  0x0000000000000968       0x68 CMakeFiles/kiibohd.elf.dir/Output/pjrcUSB/arm/usb_serial.c.o
 .debug_ranges  0x00000000000009d0      0x108 CMakeFiles/kiibohd.elf.dir/Debug/cli/cli.c.o
 .debug_ranges  0x0000000000000ad8       0x18 CMakeFiles/kiibohd.elf.dir/Debug/led/led.c.o
 .debug_ranges  0x0000000000000af0       0xc8 CMakeFiles/kiibohd.elf.dir/Debug/print/print.c.o

.debug_macro    0x0000000000000000     0x9d1f
 .debug_macro   0x0000000000000000       0x9f CMakeFiles/kiibohd.elf.dir/main.c.o
 .debug_macro   0x000000000000009f      0x886 CMakeFiles/kiibohd.elf.dir/main.c.o
 .debug_macro   0x0000000000000925       0x16 CMakeFiles/kiibohd.elf.dir/main.c.o
 .debug_macro   0x000000000000093b       0x22 CMakeFiles/kiibohd.elf.dir/main.c.o
 .debug_macro   0x000000000000095d       0x44 CMakeFiles/kiibohd.elf.dir/main.c.o
 .debug_macro   0x00000000000009a1       0x58 CMakeFiles/kiibohd.elf.dir/main.c.o
 .debug_macro   0x00000000000009f9       0x22 CMakeFiles/kiibohd.elf.dir/main.c.o
 .debug_macro   0x0000000000000a1b      0x1df CMakeFiles/kiibohd.elf.dir/main.c.o
 .debug_macro   0x0000000000000bfa     0x301e CMakeFiles/kiibohd.elf.dir/main.c.o
 .debug_macro   0x0000000000003c18       0x10 CMakeFiles/kiibohd.elf.dir/main.c.o
 .debug_macro   0x0000000000003c28       0x76 CMakeFiles/kiibohd.elf.dir/main.c.o
 .debug_macro   0x0000000000003c9e       0x10 CMakeFiles/kiibohd.elf.dir/main.c.o
 .debug_macro   0x0000000000003cae       0x3a CMakeFiles/kiibohd.elf.dir/main.c.o
 .debug_macro   0x0000000000003ce8       0x9a CMakeFiles/kiibohd.elf.dir/main.c.o
 .debug_macro   0x0000000000003d82       0x78 CMakeFiles/kiibohd.elf.dir/Lib/mk20dx.c.o
 .debug_macro   0x0000000000003dfa     0x3030 CMakeFiles/kiibohd.elf.dir/Lib/mk20dx.c.o
 .debug_macro   0x0000000000006e2a       0x66 CMakeFiles/kiibohd.elf.dir/Lib/delay.c.o
 .debug_macro   0x0000000000006e90       0x10 CMakeFiles/kiibohd.elf.dir/Lib/delay.c.o
 .debug_macro   0x0000000000006ea0       0xf5 CMakeFiles/kiibohd.elf.dir/Scan/ISSILed/led_scan.c.o
 .debug_macro   0x0000000000006f95       0x76 CMakeFiles/kiibohd.elf.dir/Scan/ISSILed/led_scan.c.o
 .debug_macro   0x000000000000700b      0x145 CMakeFiles/kiibohd.elf.dir/Scan/ISSILed/led_scan.c.o
 .debug_macro   0x0000000000007150     0x1217 CMakeFiles/kiibohd.elf.dir/Scan/ISSILed/led_scan.c.o
 .debug_macro   0x0000000000008367       0x57 CMakeFiles/kiibohd.elf.dir/Scan/ISSILed/led_scan.c.o
 .debug_macro   0x00000000000083be       0xc8 CMakeFiles/kiibohd.elf.dir/Scan/MatrixARM/matrix_scan.c.o
 .debug_macro   0x0000000000008486       0x1c CMakeFiles/kiibohd.elf.dir/Scan/MatrixARM/matrix_scan.c.o
 .debug_macro   0x00000000000084a2       0xe7 CMakeFiles/kiibohd.elf.dir/Scan/STLcd/lcd_scan.c.o
 .debug_macro   0x0000000000008589      0x109 CMakeFiles/kiibohd.elf.dir/Scan/UARTConnect/connect_scan.c.o
 .debug_macro   0x0000000000008692       0xdd CMakeFiles/kiibohd.elf.dir/Scan/MDErgo1-CustomLogo/scan_loop.c.o
 .debug_macro   0x000000000000876f      0x145 CMakeFiles/kiibohd.elf.dir/Scan/MDErgo1-CustomLogo/scan_loop.c.o
 .debug_macro   0x00000000000088b4       0xde CMakeFiles/kiibohd.elf.dir/Macro/PartialMap/macro.c.o
 .debug_macro   0x0000000000008992       0xbe CMakeFiles/kiibohd.elf.dir/Macro/PartialMap/result.c.o
 .debug_macro   0x0000000000008a50       0xbe CMakeFiles/kiibohd.elf.dir/Macro/PartialMap/trigger.c.o
 .debug_macro   0x0000000000008b0e      0x128 CMakeFiles/kiibohd.elf.dir/Output/pjrcUSB/output_com.c.o
 .debug_macro   0x0000000000008c36      0x16d CMakeFiles/kiibohd.elf.dir/Output/pjrcUSB/output_com.c.o
 .debug_macro   0x0000000000008da3      0x178 CMakeFiles/kiibohd.elf.dir/Output/pjrcUSB/output_com.c.o
 .debug_macro   0x0000000000008f1b       0x58 CMakeFiles/kiibohd.elf.dir/Output/pjrcUSB/output_com.c.o
 .debug_macro   0x0000000000008f73       0x35 CMakeFiles/kiibohd.elf.dir/Output/pjrcUSB/output_com.c.o
 .debug_macro   0x0000000000008fa8       0x35 CMakeFiles/kiibohd.elf.dir/Output/pjrcUSB/output_com.c.o
 .debug_macro   0x0000000000008fdd      0x3fa CMakeFiles/kiibohd.elf.dir/Output/pjrcUSB/output_com.c.o
 .debug_macro   0x00000000000093d7       0x22 CMakeFiles/kiibohd.elf.dir/Output/pjrcUSB/output_com.c.o
 .debug_macro   0x00000000000093f9       0x9b CMakeFiles/kiibohd.elf.dir/Output/pjrcUSB/arm/usb_desc.c.o
 .debug_macro   0x0000000000009494      0x191 CMakeFiles/kiibohd.elf.dir/Output/pjrcUSB/arm/usb_dev.c.o
 .debug_macro   0x0000000000009625      0x174 CMakeFiles/kiibohd.elf.dir/Output/pjrcUSB/arm/usb_keyboard.c.o
 .debug_macro   0x0000000000009799       0xa1 CMakeFiles/kiibohd.elf.dir/Output/pjrcUSB/arm/usb_mem.c.o
 .debug_macro   0x000000000000983a      0x18c CMakeFiles/kiibohd.elf.dir/Output/pjrcUSB/arm/usb_mouse.c.o
 .debug_macro   0x00000000000099c6      0x176 CMakeFiles/kiibohd.elf.dir/Output/pjrcUSB/arm/usb_serial.c.o
 .debug_macro   0x0000000000009b3c       0xa0 CMakeFiles/kiibohd.elf.dir/Debug/cli/cli.c.o
 .debug_macro   0x0000000000009bdc       0x73 CMakeFiles/kiibohd.elf.dir/Debug/led/led.c.o
 .debug_macro   0x0000000000009c4f       0x78 CMakeFiles/kiibohd.elf.dir/Debug/print/print.c.o
 .debug_macro   0x0000000000009cc7       0x58 CMakeFiles/kiibohd.elf.dir/Debug/print/print.c.o

.debug_line     0x0000000000000000     0x6f5b
 .debug_line    0x0000000000000000      0x3ec CMakeFiles/kiibohd.elf.dir/main.c.o
 .debug_line    0x00000000000003ec      0x439 CMakeFiles/kiibohd.elf.dir/Lib/mk20dx.c.o
 .debug_line    0x0000000000000825      0x219 CMakeFiles/kiibohd.elf.dir/Lib/delay.c.o
 .debug_line    0x0000000000000a3e      0x833 CMakeFiles/kiibohd.elf.dir/Scan/ISSILed/led_scan.c.o
 .debug_line    0x0000000000001271      0x65b CMakeFiles/kiibohd.elf.dir/Scan/MatrixARM/matrix_scan.c.o
 .debug_line    0x00000000000018cc      0x6cf CMakeFiles/kiibohd.elf.dir/Scan/STLcd/lcd_scan.c.o
 .debug_line    0x0000000000001f9b      0xaa5 CMakeFiles/kiibohd.elf.dir/Scan/UARTConnect/connect_scan.c.o
 .debug_line    0x0000000000002a40      0x5cf CMakeFiles/kiibohd.elf.dir/Scan/MDErgo1-CustomLogo/scan_loop.c.o
 .debug_line    0x000000000000300f      0x9c5 CMakeFiles/kiibohd.elf.dir/Macro/PartialMap/macro.c.o
 .debug_line    0x00000000000039d4      0x44d CMakeFiles/kiibohd.elf.dir/Macro/PartialMap/result.c.o
 .debug_line    0x0000000000003e21      0x552 CMakeFiles/kiibohd.elf.dir/Macro/PartialMap/trigger.c.o
 .debug_line    0x0000000000004373      0x7a9 CMakeFiles/kiibohd.elf.dir/Output/pjrcUSB/output_com.c.o
 .debug_line    0x0000000000004b1c      0x256 CMakeFiles/kiibohd.elf.dir/Output/pjrcUSB/arm/usb_desc.c.o
 .debug_line    0x0000000000004d72      0x62c CMakeFiles/kiibohd.elf.dir/Output/pjrcUSB/arm/usb_dev.c.o
 .debug_line    0x000000000000539e      0x426 CMakeFiles/kiibohd.elf.dir/Output/pjrcUSB/arm/usb_keyboard.c.o
 .debug_line    0x00000000000057c4      0x2cd CMakeFiles/kiibohd.elf.dir/Output/pjrcUSB/arm/usb_mem.c.o
 .debug_line    0x0000000000005a91      0x47c CMakeFiles/kiibohd.elf.dir/Output/pjrcUSB/arm/usb_mouse.c.o
 .debug_line    0x0000000000005f0d      0x45b CMakeFiles/kiibohd.elf.dir/Output/pjrcUSB/arm/usb_serial.c.o
 .debug_line    0x0000000000006368      0x57c CMakeFiles/kiibohd.elf.dir/Debug/cli/cli.c.o
 .debug_line    0x00000000000068e4      0x220 CMakeFiles/kiibohd.elf.dir/Debug/led/led.c.o
 .debug_line    0x0000000000006b04      0x457 CMakeFiles/kiibohd.elf.dir/Debug/print/print.c.o

.debug_str      0x0000000000000000    0x24601
 .debug_str     0x0000000000000000    0x14273 CMakeFiles/kiibohd.elf.dir/main.c.o
                                      0x143e5 (size before relaxing)
 .debug_str     0x0000000000014273      0x1b4 CMakeFiles/kiibohd.elf.dir/Lib/mk20dx.c.o
                                      0x14276 (size before relaxing)
 .debug_str     0x0000000000014427       0x6b CMakeFiles/kiibohd.elf.dir/Lib/delay.c.o
                                      0x13921 (size before relaxing)
 .debug_str     0x0000000000014492     0x791d CMakeFiles/kiibohd.elf.dir/Scan/ISSILed/led_scan.c.o
                                      0x1bc48 (size before relaxing)
 .debug_str     0x000000000001bdaf      0x54a CMakeFiles/kiibohd.elf.dir/Scan/MatrixARM/matrix_scan.c.o
                                      0x1817c (size before relaxing)
 .debug_str     0x000000000001c2f9      0x380 CMakeFiles/kiibohd.elf.dir/Scan/STLcd/lcd_scan.c.o
                                      0x1ba22 (size before relaxing)
 .debug_str     0x000000000001c679      0xe18 CMakeFiles/kiibohd.elf.dir/Scan/UARTConnect/connect_scan.c.o
                                      0x1c337 (size before relaxing)
 .debug_str     0x000000000001d491       0x84 CMakeFiles/kiibohd.elf.dir/Scan/MDErgo1-CustomLogo/scan_loop.c.o
                                      0x1b04f (size before relaxing)
 .debug_str     0x000000000001d515     0x1bff CMakeFiles/kiibohd.elf.dir/Macro/PartialMap/macro.c.o
                                      0x1d188 (size before relaxing)
 .debug_str     0x000000000001f114       0xac CMakeFiles/kiibohd.elf.dir/Macro/PartialMap/result.c.o
                                      0x1b2a2 (size before relaxing)
 .debug_str     0x000000000001f1c0      0x29c CMakeFiles/kiibohd.elf.dir/Macro/PartialMap/trigger.c.o
                                      0x1b5a2 (size before relaxing)
 .debug_str     0x000000000001f45c     0x213b CMakeFiles/kiibohd.elf.dir/Output/pjrcUSB/output_com.c.o
                                      0x19eb3 (size before relaxing)
 .debug_str     0x0000000000021597      0x3c3 CMakeFiles/kiibohd.elf.dir/Output/pjrcUSB/arm/usb_desc.c.o
                                       0x7923 (size before relaxing)
 .debug_str     0x000000000002195a      0x57b CMakeFiles/kiibohd.elf.dir/Output/pjrcUSB/arm/usb_dev.c.o
                                      0x189da (size before relaxing)
 .debug_str     0x0000000000021ed5     0x1fd1 CMakeFiles/kiibohd.elf.dir/Output/pjrcUSB/arm/usb_keyboard.c.o
                                      0x17b98 (size before relaxing)
 .debug_str     0x0000000000023ea6       0x50 CMakeFiles/kiibohd.elf.dir/Output/pjrcUSB/arm/usb_mem.c.o
                                      0x14708 (size before relaxing)
 .debug_str     0x0000000000023ef6      0x1fc CMakeFiles/kiibohd.elf.dir/Output/pjrcUSB/arm/usb_mouse.c.o
                                      0x17c6f (size before relaxing)
 .debug_str     0x00000000000240f2       0xe2 CMakeFiles/kiibohd.elf.dir/Output/pjrcUSB/arm/usb_serial.c.o
                                      0x176be (size before relaxing)
 .debug_str     0x00000000000241d4      0x27f CMakeFiles/kiibohd.elf.dir/Debug/cli/cli.c.o
                                      0x17e90 (size before relaxing)
 .debug_str     0x0000000000024453       0x16 CMakeFiles/kiibohd.elf.dir/Debug/led/led.c.o
                                      0x138f1 (size before relaxing)
 .debug_str     0x0000000000024469      0x198 CMakeFiles/kiibohd.elf.dir/Debug/print/print.c.o
                                       0x3b1f (size before relaxing)

.comment        0x0000000000000000       0x70
 .comment       0x0000000000000000       0x70 CMakeFiles/kiibohd.elf.dir/main.c.o
                                         0x71 (size before relaxing)
 .comment       0x0000000000000000       0x71 CMakeFiles/kiibohd.elf.dir/Lib/mk20dx.c.o
 .comment       0x0000000000000000       0x71 CMakeFiles/kiibohd.elf.dir/Lib/delay.c.o
 .comment       0x0000000000000000       0x71 CMakeFiles/kiibohd.elf.dir/Scan/ISSILed/led_scan.c.o
 .comment       0x0000000000000000       0x71 CMakeFiles/kiibohd.elf.dir/Scan/MatrixARM/matrix_scan.c.o
 .comment       0x0000000000000000       0x71 CMakeFiles/kiibohd.elf.dir/Scan/STLcd/lcd_scan.c.o
 .comment       0x0000000000000000       0x71 CMakeFiles/kiibohd.elf.dir/Scan/UARTConnect/connect_scan.c.o
 .comment       0x0000000000000000       0x71 CMakeFiles/kiibohd.elf.dir/Scan/MDErgo1-CustomLogo/scan_loop.c.o
 .comment       0x0000000000000000       0x71 CMakeFiles/kiibohd.elf.dir/Macro/PartialMap/macro.c.o
 .comment       0x0000000000000000       0x71 CMakeFiles/kiibohd.elf.dir/Macro/PartialMap/result.c.o
 .comment       0x0000000000000000       0x71 CMakeFiles/kiibohd.elf.dir/Macro/PartialMap/trigger.c.o
 .comment       0x0000000000000000       0x71 CMakeFiles/kiibohd.elf.dir/Output/pjrcUSB/output_com.c.o
 .comment       0x0000000000000000       0x71 CMakeFiles/kiibohd.elf.dir/Output/pjrcUSB/arm/usb_desc.c.o
 .comment       0x0000000000000000       0x71 CMakeFiles/kiibohd.elf.dir/Output/pjrcUSB/arm/usb_dev.c.o
 .comment       0x0000000000000000       0x71 CMakeFiles/kiibohd.elf.dir/Output/pjrcUSB/arm/usb_keyboard.c.o
 .comment       0x0000000000000000       0x71 CMakeFiles/kiibohd.elf.dir/Output/pjrcUSB/arm/usb_mem.c.o
 .comment       0x0000000000000000       0x71 CMakeFiles/kiibohd.elf.dir/Output/pjrcUSB/arm/usb_mouse.c.o
 .comment       0x0000000000000000       0x71 CMakeFiles/kiibohd.elf.dir/Output/pjrcUSB/arm/usb_serial.c.o
 .comment       0x0000000000000000       0x71 CMakeFiles/kiibohd.elf.dir/Debug/cli/cli.c.o
 .comment       0x0000000000000000       0x71 CMakeFiles/kiibohd.elf.dir/Debug/led/led.c.o
 .comment       0x0000000000000000       0x71 CMakeFiles/kiibohd.elf.dir/Debug/print/print.c.o

.ARM.attributes
                0x0000000000000000       0x33
 .ARM.attributes
                0x0000000000000000       0x33 CMakeFiles/kiibohd.elf.dir/main.c.o
 .ARM.attributes
                0x0000000000000033       0x33 CMakeFiles/kiibohd.elf.dir/Lib/mk20dx.c.o
 .ARM.attributes
                0x0000000000000066       0x33 CMakeFiles/kiibohd.elf.dir/Lib/delay.c.o
 .ARM.attributes
                0x0000000000000099       0x33 CMakeFiles/kiibohd.elf.dir/Scan/ISSILed/led_scan.c.o
 .ARM.attributes
                0x00000000000000cc       0x33 CMakeFiles/kiibohd.elf.dir/Scan/MatrixARM/matrix_scan.c.o
 .ARM.attributes
                0x00000000000000ff       0x33 CMakeFiles/kiibohd.elf.dir/Scan/STLcd/lcd_scan.c.o
 .ARM.attributes
                0x0000000000000132       0x33 CMakeFiles/kiibohd.elf.dir/Scan/UARTConnect/connect_scan.c.o
 .ARM.attributes
                0x0000000000000165       0x33 CMakeFiles/kiibohd.elf.dir/Scan/MDErgo1-CustomLogo/scan_loop.c.o
 .ARM.attributes
                0x0000000000000198       0x33 CMakeFiles/kiibohd.elf.dir/Macro/PartialMap/macro.c.o
 .ARM.attributes
                0x00000000000001cb       0x33 CMakeFiles/kiibohd.elf.dir/Macro/PartialMap/result.c.o
 .ARM.attributes
                0x00000000000001fe       0x33 CMakeFiles/kiibohd.elf.dir/Macro/PartialMap/trigger.c.o
 .ARM.attributes
                0x0000000000000231       0x33 CMakeFiles/kiibohd.elf.dir/Output/pjrcUSB/output_com.c.o
 .ARM.attributes
                0x0000000000000264       0x33 CMakeFiles/kiibohd.elf.dir/Output/pjrcUSB/arm/usb_desc.c.o
 .ARM.attributes
                0x0000000000000297       0x33 CMakeFiles/kiibohd.elf.dir/Output/pjrcUSB/arm/usb_dev.c.o
 .ARM.attributes
                0x00000000000002ca       0x33 CMakeFiles/kiibohd.elf.dir/Output/pjrcUSB/arm/usb_keyboard.c.o
 .ARM.attributes
                0x00000000000002fd       0x33 CMakeFiles/kiibohd.elf.dir/Output/pjrcUSB/arm/usb_mem.c.o
 .ARM.attributes
                0x0000000000000330       0x33 CMakeFiles/kiibohd.elf.dir/Output/pjrcUSB/arm/usb_mouse.c.o
 .ARM.attributes
                0x0000000000000363       0x33 CMakeFiles/kiibohd.elf.dir/Output/pjrcUSB/arm/usb_serial.c.o
 .ARM.attributes
                0x0000000000000396       0x33 CMakeFiles/kiibohd.elf.dir/Debug/cli/cli.c.o
 .ARM.attributes
                0x00000000000003c9       0x33 CMakeFiles/kiibohd.elf.dir/Debug/led/led.c.o
 .ARM.attributes
                0x00000000000003fc       0x33 CMakeFiles/kiibohd.elf.dir/Debug/print/print.c.o

.debug_frame    0x0000000000000000     0x195c
 .debug_frame   0x0000000000000000       0x28 CMakeFiles/kiibohd.elf.dir/main.c.o
 .debug_frame   0x0000000000000028      0x144 CMakeFiles/kiibohd.elf.dir/Lib/mk20dx.c.o
 .debug_frame   0x000000000000016c       0x4c CMakeFiles/kiibohd.elf.dir/Lib/delay.c.o
 .debug_frame   0x00000000000001b8      0x2ac CMakeFiles/kiibohd.elf.dir/Scan/ISSILed/led_scan.c.o
 .debug_frame   0x0000000000000464       0xf8 CMakeFiles/kiibohd.elf.dir/Scan/MatrixARM/matrix_scan.c.o
 .debug_frame   0x000000000000055c      0x1ac CMakeFiles/kiibohd.elf.dir/Scan/STLcd/lcd_scan.c.o
 .debug_frame   0x0000000000000708      0x380 CMakeFiles/kiibohd.elf.dir/Scan/UARTConnect/connect_scan.c.o
 .debug_frame   0x0000000000000a88       0x7c CMakeFiles/kiibohd.elf.dir/Scan/MDErgo1-CustomLogo/scan_loop.c.o
 .debug_frame   0x0000000000000b04      0x39c CMakeFiles/kiibohd.elf.dir/Macro/PartialMap/macro.c.o
 .debug_frame   0x0000000000000ea0       0x5c CMakeFiles/kiibohd.elf.dir/Macro/PartialMap/result.c.o
 .debug_frame   0x0000000000000efc       0x90 CMakeFiles/kiibohd.elf.dir/Macro/PartialMap/trigger.c.o
 .debug_frame   0x0000000000000f8c      0x2a8 CMakeFiles/kiibohd.elf.dir/Output/pjrcUSB/output_com.c.o
 .debug_frame   0x0000000000001234      0x11c CMakeFiles/kiibohd.elf.dir/Output/pjrcUSB/arm/usb_dev.c.o
 .debug_frame   0x0000000000001350       0x44 CMakeFiles/kiibohd.elf.dir/Output/pjrcUSB/arm/usb_keyboard.c.o
 .debug_frame   0x0000000000001394       0x38 CMakeFiles/kiibohd.elf.dir/Output/pjrcUSB/arm/usb_mem.c.o
 .debug_frame   0x00000000000013cc       0xa0 CMakeFiles/kiibohd.elf.dir/Output/pjrcUSB/arm/usb_mouse.c.o
 .debug_frame   0x000000000000146c      0x10c CMakeFiles/kiibohd.elf.dir/Output/pjrcUSB/arm/usb_serial.c.o
 .debug_frame   0x0000000000001578      0x1e8 CMakeFiles/kiibohd.elf.dir/Debug/cli/cli.c.o
 .debug_frame   0x0000000000001760       0x30 CMakeFiles/kiibohd.elf.dir/Debug/led/led.c.o
 .debug_frame   0x0000000000001790      0x1cc CMakeFiles/kiibohd.elf.dir/Debug/print/print.c.o

.debug_loc      0x0000000000000000     0x6c7e
 .debug_loc     0x0000000000000000      0x32f CMakeFiles/kiibohd.elf.dir/Lib/mk20dx.c.o
 .debug_loc     0x000000000000032f       0x6f CMakeFiles/kiibohd.elf.dir/Lib/delay.c.o
 .debug_loc     0x000000000000039e      0x9f6 CMakeFiles/kiibohd.elf.dir/Scan/ISSILed/led_scan.c.o
 .debug_loc     0x0000000000000d94      0x517 CMakeFiles/kiibohd.elf.dir/Scan/MatrixARM/matrix_scan.c.o
 .debug_loc     0x00000000000012ab      0x629 CMakeFiles/kiibohd.elf.dir/Scan/STLcd/lcd_scan.c.o
 .debug_loc     0x00000000000018d4      0xee2 CMakeFiles/kiibohd.elf.dir/Scan/UARTConnect/connect_scan.c.o
 .debug_loc     0x00000000000027b6       0x37 CMakeFiles/kiibohd.elf.dir/Scan/MDErgo1-CustomLogo/scan_loop.c.o
 .debug_loc     0x00000000000027ed     0x1401 CMakeFiles/kiibohd.elf.dir/Macro/PartialMap/macro.c.o
 .debug_loc     0x0000000000003bee      0x177 CMakeFiles/kiibohd.elf.dir/Macro/PartialMap/result.c.o
 .debug_loc     0x0000000000003d65      0x35b CMakeFiles/kiibohd.elf.dir/Macro/PartialMap/trigger.c.o
 .debug_loc     0x00000000000040c0      0xb67 CMakeFiles/kiibohd.elf.dir/Output/pjrcUSB/output_com.c.o
 .debug_loc     0x0000000000004c27      0xa25 CMakeFiles/kiibohd.elf.dir/Output/pjrcUSB/arm/usb_dev.c.o
 .debug_loc     0x000000000000564c      0x274 CMakeFiles/kiibohd.elf.dir/Output/pjrcUSB/arm/usb_keyboard.c.o
 .debug_loc     0x00000000000058c0       0xca CMakeFiles/kiibohd.elf.dir/Output/pjrcUSB/arm/usb_mem.c.o
 .debug_loc     0x000000000000598a      0x35d CMakeFiles/kiibohd.elf.dir/Output/pjrcUSB/arm/usb_mouse.c.o
 .debug_loc     0x0000000000005ce7      0x2e8 CMakeFiles/kiibohd.elf.dir/Output/pjrcUSB/arm/usb_serial.c.o
 .debug_loc     0x0000000000005fcf      0x5a7 CMakeFiles/kiibohd.elf.dir/Debug/cli/cli.c.o
 .debug_loc     0x0000000000006576      0x708 CMakeFiles/kiibohd.elf.dir/Debug/print/print.c.o

Cross Reference Table

Symbol                                            File
CLIDict                                           CMakeFiles/kiibohd.elf.dir/Debug/cli/cli.c.o
                                                  CMakeFiles/kiibohd.elf.dir/Output/pjrcUSB/output_com.c.o
                                                  CMakeFiles/kiibohd.elf.dir/Macro/PartialMap/macro.c.o
                                                  CMakeFiles/kiibohd.elf.dir/Scan/MDErgo1-CustomLogo/scan_loop.c.o
                                                  CMakeFiles/kiibohd.elf.dir/Scan/UARTConnect/connect_scan.c.o
                                                  CMakeFiles/kiibohd.elf.dir/Scan/STLcd/lcd_scan.c.o
                                                  CMakeFiles/kiibohd.elf.dir/Scan/MatrixARM/matrix_scan.c.o
                                                  CMakeFiles/kiibohd.elf.dir/Scan/ISSILed/led_scan.c.o
                                                  CMakeFiles/kiibohd.elf.dir/main.c.o
CLIDictNames                                      CMakeFiles/kiibohd.elf.dir/Debug/cli/cli.c.o
                                                  CMakeFiles/kiibohd.elf.dir/Output/pjrcUSB/output_com.c.o
                                                  CMakeFiles/kiibohd.elf.dir/Macro/PartialMap/macro.c.o
                                                  CMakeFiles/kiibohd.elf.dir/Scan/MDErgo1-CustomLogo/scan_loop.c.o
                                                  CMakeFiles/kiibohd.elf.dir/Scan/UARTConnect/connect_scan.c.o
                                                  CMakeFiles/kiibohd.elf.dir/Scan/STLcd/lcd_scan.c.o
                                                  CMakeFiles/kiibohd.elf.dir/Scan/MatrixARM/matrix_scan.c.o
                                                  CMakeFiles/kiibohd.elf.dir/Scan/ISSILed/led_scan.c.o
                                                  CMakeFiles/kiibohd.elf.dir/main.c.o
CLIDictionariesUsed                               CMakeFiles/kiibohd.elf.dir/Debug/cli/cli.c.o
                                                  CMakeFiles/kiibohd.elf.dir/Output/pjrcUSB/output_com.c.o
                                                  CMakeFiles/kiibohd.elf.dir/Macro/PartialMap/macro.c.o
                                                  CMakeFiles/kiibohd.elf.dir/Scan/MDErgo1-CustomLogo/scan_loop.c.o
                                                  CMakeFiles/kiibohd.elf.dir/Scan/UARTConnect/connect_scan.c.o
                                                  CMakeFiles/kiibohd.elf.dir/Scan/STLcd/lcd_scan.c.o
                                                  CMakeFiles/kiibohd.elf.dir/Scan/MatrixARM/matrix_scan.c.o
                                                  CMakeFiles/kiibohd.elf.dir/Scan/ISSILed/led_scan.c.o
                                                  CMakeFiles/kiibohd.elf.dir/main.c.o
CLIHexDebugMode                                   CMakeFiles/kiibohd.elf.dir/Debug/cli/cli.c.o
                                                  CMakeFiles/kiibohd.elf.dir/Output/pjrcUSB/output_com.c.o
                                                  CMakeFiles/kiibohd.elf.dir/Macro/PartialMap/macro.c.o
                                                  CMakeFiles/kiibohd.elf.dir/Scan/MDErgo1-CustomLogo/scan_loop.c.o
                                                  CMakeFiles/kiibohd.elf.dir/Scan/UARTConnect/connect_scan.c.o
                                                  CMakeFiles/kiibohd.elf.dir/Scan/STLcd/lcd_scan.c.o
                                                  CMakeFiles/kiibohd.elf.dir/Scan/MatrixARM/matrix_scan.c.o
                                                  CMakeFiles/kiibohd.elf.dir/Scan/ISSILed/led_scan.c.o
                                                  CMakeFiles/kiibohd.elf.dir/main.c.o
CLIHistoryBuffer                                  CMakeFiles/kiibohd.elf.dir/Debug/cli/cli.c.o
                                                  CMakeFiles/kiibohd.elf.dir/Output/pjrcUSB/output_com.c.o
                                                  CMakeFiles/kiibohd.elf.dir/Macro/PartialMap/macro.c.o
                                                  CMakeFiles/kiibohd.elf.dir/Scan/MDErgo1-CustomLogo/scan_loop.c.o
                                                  CMakeFiles/kiibohd.elf.dir/Scan/UARTConnect/connect_scan.c.o
                                                  CMakeFiles/kiibohd.elf.dir/Scan/STLcd/lcd_scan.c.o
                                                  CMakeFiles/kiibohd.elf.dir/Scan/MatrixARM/matrix_scan.c.o
                                                  CMakeFiles/kiibohd.elf.dir/Scan/ISSILed/led_scan.c.o
                                                  CMakeFiles/kiibohd.elf.dir/main.c.o
CLIHistoryCurrent                                 CMakeFiles/kiibohd.elf.dir/Debug/cli/cli.c.o
                                                  CMakeFiles/kiibohd.elf.dir/Output/pjrcUSB/output_com.c.o
                                                  CMakeFiles/kiibohd.elf.dir/Macro/PartialMap/macro.c.o
                                                  CMakeFiles/kiibohd.elf.dir/Scan/MDErgo1-CustomLogo/scan_loop.c.o
                                                  CMakeFiles/kiibohd.elf.dir/Scan/UARTConnect/connect_scan.c.o
                                                  CMakeFiles/kiibohd.elf.dir/Scan/STLcd/lcd_scan.c.o
                                                  CMakeFiles/kiibohd.elf.dir/Scan/MatrixARM/matrix_scan.c.o
                                                  CMakeFiles/kiibohd.elf.dir/Scan/ISSILed/led_scan.c.o
                                                  CMakeFiles/kiibohd.elf.dir/main.c.o
CLIHistoryHead                                    CMakeFiles/kiibohd.elf.dir/Debug/cli/cli.c.o
                                                  CMakeFiles/kiibohd.elf.dir/Output/pjrcUSB/output_com.c.o
                                                  CMakeFiles/kiibohd.elf.dir/Macro/PartialMap/macro.c.o
                                                  CMakeFiles/kiibohd.elf.dir/Scan/MDErgo1-CustomLogo/scan_loop.c.o
                                                  CMakeFiles/kiibohd.elf.dir/Scan/UARTConnect/connect_scan.c.o
                                                  CMakeFiles/kiibohd.elf.dir/Scan/STLcd/lcd_scan.c.o
                                                  CMakeFiles/kiibohd.elf.dir/Scan/MatrixARM/matrix_scan.c.o
                                                  CMakeFiles/kiibohd.elf.dir/Scan/ISSILed/led_scan.c.o
                                                  CMakeFiles/kiibohd.elf.dir/main.c.o
CLIHistoryTail                                    CMakeFiles/kiibohd.elf.dir/Debug/cli/cli.c.o
                                                  CMakeFiles/kiibohd.elf.dir/Output/pjrcUSB/output_com.c.o
                                                  CMakeFiles/kiibohd.elf.dir/Macro/PartialMap/macro.c.o
                                                  CMakeFiles/kiibohd.elf.dir/Scan/MDErgo1-CustomLogo/scan_loop.c.o
                                                  CMakeFiles/kiibohd.elf.dir/Scan/UARTConnect/connect_scan.c.o
                                                  CMakeFiles/kiibohd.elf.dir/Scan/STLcd/lcd_scan.c.o
                                                  CMakeFiles/kiibohd.elf.dir/Scan/MatrixARM/matrix_scan.c.o
                                                  CMakeFiles/kiibohd.elf.dir/Scan/ISSILed/led_scan.c.o
                                                  CMakeFiles/kiibohd.elf.dir/main.c.o
CLILEDState                                       CMakeFiles/kiibohd.elf.dir/Debug/cli/cli.c.o
                                                  CMakeFiles/kiibohd.elf.dir/Output/pjrcUSB/output_com.c.o
                                                  CMakeFiles/kiibohd.elf.dir/Macro/PartialMap/macro.c.o
                                                  CMakeFiles/kiibohd.elf.dir/Scan/MDErgo1-CustomLogo/scan_loop.c.o
                                                  CMakeFiles/kiibohd.elf.dir/Scan/UARTConnect/connect_scan.c.o
                                                  CMakeFiles/kiibohd.elf.dir/Scan/STLcd/lcd_scan.c.o
                                                  CMakeFiles/kiibohd.elf.dir/Scan/MatrixARM/matrix_scan.c.o
                                                  CMakeFiles/kiibohd.elf.dir/Scan/ISSILed/led_scan.c.o
                                                  CMakeFiles/kiibohd.elf.dir/main.c.o
CLILineBuffer                                     CMakeFiles/kiibohd.elf.dir/Debug/cli/cli.c.o
                                                  CMakeFiles/kiibohd.elf.dir/Output/pjrcUSB/output_com.c.o
                                                  CMakeFiles/kiibohd.elf.dir/Macro/PartialMap/macro.c.o
                                                  CMakeFiles/kiibohd.elf.dir/Scan/MDErgo1-CustomLogo/scan_loop.c.o
                                                  CMakeFiles/kiibohd.elf.dir/Scan/UARTConnect/connect_scan.c.o
                                                  CMakeFiles/kiibohd.elf.dir/Scan/STLcd/lcd_scan.c.o
                                                  CMakeFiles/kiibohd.elf.dir/Scan/MatrixARM/matrix_scan.c.o
                                                  CMakeFiles/kiibohd.elf.dir/Scan/ISSILed/led_scan.c.o
                                                  CMakeFiles/kiibohd.elf.dir/main.c.o
CLILineBufferCurrent                              CMakeFiles/kiibohd.elf.dir/Debug/cli/cli.c.o
                                                  CMakeFiles/kiibohd.elf.dir/Output/pjrcUSB/output_com.c.o
                                                  CMakeFiles/kiibohd.elf.dir/Macro/PartialMap/macro.c.o
                                                  CMakeFiles/kiibohd.elf.dir/Scan/MDErgo1-CustomLogo/scan_loop.c.o
                                                  CMakeFiles/kiibohd.elf.dir/Scan/UARTConnect/connect_scan.c.o
                                                  CMakeFiles/kiibohd.elf.dir/Scan/STLcd/lcd_scan.c.o
                                                  CMakeFiles/kiibohd.elf.dir/Scan/MatrixARM/matrix_scan.c.o
                                                  CMakeFiles/kiibohd.elf.dir/Scan/ISSILed/led_scan.c.o
                                                  CMakeFiles/kiibohd.elf.dir/main.c.o
CLI_argumentIsolation                             CMakeFiles/kiibohd.elf.dir/Debug/cli/cli.c.o
                                                  CMakeFiles/kiibohd.elf.dir/Output/pjrcUSB/output_com.c.o
                                                  CMakeFiles/kiibohd.elf.dir/Macro/PartialMap/macro.c.o
                                                  CMakeFiles/kiibohd.elf.dir/Scan/UARTConnect/connect_scan.c.o
                                                  CMakeFiles/kiibohd.elf.dir/Scan/STLcd/lcd_scan.c.o
                                                  CMakeFiles/kiibohd.elf.dir/Scan/MatrixARM/matrix_scan.c.o
                                                  CMakeFiles/kiibohd.elf.dir/Scan/ISSILed/led_scan.c.o
CLI_commandLookup                                 CMakeFiles/kiibohd.elf.dir/Debug/cli/cli.c.o
CLI_init                                          CMakeFiles/kiibohd.elf.dir/Debug/cli/cli.c.o
                                                  CMakeFiles/kiibohd.elf.dir/main.c.o
CLI_process                                       CMakeFiles/kiibohd.elf.dir/Debug/cli/cli.c.o
                                                  CMakeFiles/kiibohd.elf.dir/main.c.o
CLI_registerDictionary                            CMakeFiles/kiibohd.elf.dir/Debug/cli/cli.c.o
                                                  CMakeFiles/kiibohd.elf.dir/Output/pjrcUSB/output_com.c.o
                                                  CMakeFiles/kiibohd.elf.dir/Macro/PartialMap/macro.c.o
                                                  CMakeFiles/kiibohd.elf.dir/Scan/UARTConnect/connect_scan.c.o
                                                  CMakeFiles/kiibohd.elf.dir/Scan/STLcd/lcd_scan.c.o
                                                  CMakeFiles/kiibohd.elf.dir/Scan/MatrixARM/matrix_scan.c.o
                                                  CMakeFiles/kiibohd.elf.dir/Scan/ISSILed/led_scan.c.o
CLI_retreiveHistory                               CMakeFiles/kiibohd.elf.dir/Debug/cli/cli.c.o
CLI_saveHistory                                   CMakeFiles/kiibohd.elf.dir/Debug/cli/cli.c.o
CLI_tabCompletion                                 CMakeFiles/kiibohd.elf.dir/Debug/cli/cli.c.o
CLI_wrap                                          CMakeFiles/kiibohd.elf.dir/Debug/cli/cli.c.o
CapabilitiesList                                  CMakeFiles/kiibohd.elf.dir/Macro/PartialMap/macro.c.o
                                                  CMakeFiles/kiibohd.elf.dir/Macro/PartialMap/trigger.c.o
                                                  CMakeFiles/kiibohd.elf.dir/Macro/PartialMap/result.c.o
                                                  CMakeFiles/kiibohd.elf.dir/Scan/UARTConnect/connect_scan.c.o
                                                  CMakeFiles/kiibohd.elf.dir/Scan/STLcd/lcd_scan.c.o
                                                  CMakeFiles/kiibohd.elf.dir/Scan/ISSILed/led_scan.c.o
Connect_addBytes                                  CMakeFiles/kiibohd.elf.dir/Scan/UARTConnect/connect_scan.c.o
Connect_baud                                      CMakeFiles/kiibohd.elf.dir/Scan/UARTConnect/connect_scan.c.o
Connect_baudFine                                  CMakeFiles/kiibohd.elf.dir/Scan/UARTConnect/connect_scan.c.o
Connect_cableChecksMaster                         CMakeFiles/kiibohd.elf.dir/Scan/UARTConnect/connect_scan.c.o
Connect_cableChecksSlave                          CMakeFiles/kiibohd.elf.dir/Scan/UARTConnect/connect_scan.c.o
Connect_cableFaultsMaster                         CMakeFiles/kiibohd.elf.dir/Scan/UARTConnect/connect_scan.c.o
Connect_cableFaultsSlave                          CMakeFiles/kiibohd.elf.dir/Scan/UARTConnect/connect_scan.c.o
Connect_cableOkMaster                             CMakeFiles/kiibohd.elf.dir/Scan/UARTConnect/connect_scan.c.o
Connect_cableOkSlave                              CMakeFiles/kiibohd.elf.dir/Scan/UARTConnect/connect_scan.c.o
Connect_currentChange                             CMakeFiles/kiibohd.elf.dir/Scan/UARTConnect/connect_scan.c.o
                                                  CMakeFiles/kiibohd.elf.dir/Scan/MDErgo1-CustomLogo/scan_loop.c.o
Connect_debug                                     CMakeFiles/kiibohd.elf.dir/Scan/UARTConnect/connect_scan.c.o
Connect_id                                        CMakeFiles/kiibohd.elf.dir/Scan/UARTConnect/connect_scan.c.o
                                                  CMakeFiles/kiibohd.elf.dir/Macro/PartialMap/macro.c.o
                                                  CMakeFiles/kiibohd.elf.dir/Scan/ISSILed/led_scan.c.o
Connect_lastCheck                                 CMakeFiles/kiibohd.elf.dir/Scan/UARTConnect/connect_scan.c.o
Connect_master                                    CMakeFiles/kiibohd.elf.dir/Scan/UARTConnect/connect_scan.c.o
                                                  CMakeFiles/kiibohd.elf.dir/Macro/PartialMap/macro.c.o
                                                  CMakeFiles/kiibohd.elf.dir/Scan/STLcd/lcd_scan.c.o
Connect_maxId                                     CMakeFiles/kiibohd.elf.dir/Scan/UARTConnect/connect_scan.c.o
Connect_override                                  CMakeFiles/kiibohd.elf.dir/Scan/UARTConnect/connect_scan.c.o
Connect_receiveFunctions                          CMakeFiles/kiibohd.elf.dir/Scan/UARTConnect/connect_scan.c.o
Connect_receive_Animation                         CMakeFiles/kiibohd.elf.dir/Scan/UARTConnect/connect_scan.c.o
Connect_receive_CableCheck                        CMakeFiles/kiibohd.elf.dir/Scan/UARTConnect/connect_scan.c.o
Connect_receive_IdEnumeration                     CMakeFiles/kiibohd.elf.dir/Scan/UARTConnect/connect_scan.c.o
Connect_receive_IdReport                          CMakeFiles/kiibohd.elf.dir/Scan/UARTConnect/connect_scan.c.o
Connect_receive_IdRequest                         CMakeFiles/kiibohd.elf.dir/Scan/UARTConnect/connect_scan.c.o
Connect_receive_RemoteCapability                  CMakeFiles/kiibohd.elf.dir/Scan/UARTConnect/connect_scan.c.o
Connect_receive_RemoteCapabilityArgs              CMakeFiles/kiibohd.elf.dir/Scan/UARTConnect/connect_scan.c.o
Connect_receive_RemoteCapabilityBuffer            CMakeFiles/kiibohd.elf.dir/Scan/UARTConnect/connect_scan.c.o
Connect_receive_ScanCode                          CMakeFiles/kiibohd.elf.dir/Scan/UARTConnect/connect_scan.c.o
Connect_receive_ScanCodeBuffer                    CMakeFiles/kiibohd.elf.dir/Scan/UARTConnect/connect_scan.c.o
Connect_receive_ScanCodeBufferPos                 CMakeFiles/kiibohd.elf.dir/Scan/UARTConnect/connect_scan.c.o
Connect_receive_ScanCodeDeviceId                  CMakeFiles/kiibohd.elf.dir/Scan/UARTConnect/connect_scan.c.o
Connect_reset                                     CMakeFiles/kiibohd.elf.dir/Scan/UARTConnect/connect_scan.c.o
Connect_rx_process                                CMakeFiles/kiibohd.elf.dir/Scan/UARTConnect/connect_scan.c.o
Connect_scan                                      CMakeFiles/kiibohd.elf.dir/Scan/UARTConnect/connect_scan.c.o
                                                  CMakeFiles/kiibohd.elf.dir/Scan/MDErgo1-CustomLogo/scan_loop.c.o
Connect_send_Animation                            CMakeFiles/kiibohd.elf.dir/Scan/UARTConnect/connect_scan.c.o
Connect_send_CableCheck                           CMakeFiles/kiibohd.elf.dir/Scan/UARTConnect/connect_scan.c.o
Connect_send_IdEnumeration                        CMakeFiles/kiibohd.elf.dir/Scan/UARTConnect/connect_scan.c.o
Connect_send_IdReport                             CMakeFiles/kiibohd.elf.dir/Scan/UARTConnect/connect_scan.c.o
Connect_send_IdRequest                            CMakeFiles/kiibohd.elf.dir/Scan/UARTConnect/connect_scan.c.o
Connect_send_Idle                                 CMakeFiles/kiibohd.elf.dir/Scan/UARTConnect/connect_scan.c.o
Connect_send_RemoteCapability                     CMakeFiles/kiibohd.elf.dir/Scan/UARTConnect/connect_scan.c.o
                                                  CMakeFiles/kiibohd.elf.dir/Scan/STLcd/lcd_scan.c.o
                                                  CMakeFiles/kiibohd.elf.dir/Scan/ISSILed/led_scan.c.o
Connect_send_ScanCode                             CMakeFiles/kiibohd.elf.dir/Scan/UARTConnect/connect_scan.c.o
                                                  CMakeFiles/kiibohd.elf.dir/Macro/PartialMap/macro.c.o
Connect_setup                                     CMakeFiles/kiibohd.elf.dir/Scan/UARTConnect/connect_scan.c.o
                                                  CMakeFiles/kiibohd.elf.dir/Scan/MDErgo1-CustomLogo/scan_loop.c.o
I2C_BufferLen                                     CMakeFiles/kiibohd.elf.dir/Scan/ISSILed/led_scan.c.o
I2C_BufferPush                                    CMakeFiles/kiibohd.elf.dir/Scan/ISSILed/led_scan.c.o
I2C_RxBuffer                                      CMakeFiles/kiibohd.elf.dir/Scan/ISSILed/led_scan.c.o
I2C_RxBufferPtr                                   CMakeFiles/kiibohd.elf.dir/Scan/ISSILed/led_scan.c.o
I2C_Send                                          CMakeFiles/kiibohd.elf.dir/Scan/ISSILed/led_scan.c.o
I2C_TxBuffer                                      CMakeFiles/kiibohd.elf.dir/Scan/ISSILed/led_scan.c.o
I2C_TxBufferPop                                   CMakeFiles/kiibohd.elf.dir/Scan/ISSILed/led_scan.c.o
I2C_TxBufferPtr                                   CMakeFiles/kiibohd.elf.dir/Scan/ISSILed/led_scan.c.o
InterconnectOffsetList                            CMakeFiles/kiibohd.elf.dir/Macro/PartialMap/macro.c.o
                                                  CMakeFiles/kiibohd.elf.dir/Scan/UARTConnect/connect_scan.c.o
LCD_clear                                         CMakeFiles/kiibohd.elf.dir/Scan/STLcd/lcd_scan.c.o
LCD_currentChange                                 CMakeFiles/kiibohd.elf.dir/Scan/STLcd/lcd_scan.c.o
                                                  CMakeFiles/kiibohd.elf.dir/Scan/MDErgo1-CustomLogo/scan_loop.c.o
LCD_initialize                                    CMakeFiles/kiibohd.elf.dir/Scan/STLcd/lcd_scan.c.o
LCD_layerStackExact                               CMakeFiles/kiibohd.elf.dir/Scan/STLcd/lcd_scan.c.o
LCD_layerStackExact_capability                    CMakeFiles/kiibohd.elf.dir/Scan/STLcd/lcd_scan.c.o
                                                  CMakeFiles/kiibohd.elf.dir/Macro/PartialMap/macro.c.o
LCD_layerStackExact_size                          CMakeFiles/kiibohd.elf.dir/Scan/STLcd/lcd_scan.c.o
LCD_layerStack_capability                         CMakeFiles/kiibohd.elf.dir/Scan/STLcd/lcd_scan.c.o
                                                  CMakeFiles/kiibohd.elf.dir/Macro/PartialMap/macro.c.o
LCD_layerStack_prevSize                           CMakeFiles/kiibohd.elf.dir/Scan/STLcd/lcd_scan.c.o
LCD_layerStack_prevTop                            CMakeFiles/kiibohd.elf.dir/Scan/STLcd/lcd_scan.c.o
LCD_scan                                          CMakeFiles/kiibohd.elf.dir/Scan/STLcd/lcd_scan.c.o
                                                  CMakeFiles/kiibohd.elf.dir/Scan/MDErgo1-CustomLogo/scan_loop.c.o
LCD_setup                                         CMakeFiles/kiibohd.elf.dir/Scan/STLcd/lcd_scan.c.o
                                                  CMakeFiles/kiibohd.elf.dir/Scan/MDErgo1-CustomLogo/scan_loop.c.o
LCD_writeControlReg                               CMakeFiles/kiibohd.elf.dir/Scan/STLcd/lcd_scan.c.o
LCD_writeDisplayReg                               CMakeFiles/kiibohd.elf.dir/Scan/STLcd/lcd_scan.c.o
LED_control                                       CMakeFiles/kiibohd.elf.dir/Scan/ISSILed/led_scan.c.o
LED_control_capability                            CMakeFiles/kiibohd.elf.dir/Scan/ISSILed/led_scan.c.o
                                                  CMakeFiles/kiibohd.elf.dir/Macro/PartialMap/macro.c.o
LED_control_timer                                 CMakeFiles/kiibohd.elf.dir/Scan/ISSILed/led_scan.c.o
LED_currentChange                                 CMakeFiles/kiibohd.elf.dir/Scan/ISSILed/led_scan.c.o
                                                  CMakeFiles/kiibohd.elf.dir/Scan/MDErgo1-CustomLogo/scan_loop.c.o
LED_currentEvent                                  CMakeFiles/kiibohd.elf.dir/Scan/ISSILed/led_scan.c.o
LED_defaultBrightness1                            CMakeFiles/kiibohd.elf.dir/Scan/ISSILed/led_scan.c.o
LED_ledEnableMask1                                CMakeFiles/kiibohd.elf.dir/Scan/ISSILed/led_scan.c.o
LED_pageBuffer                                    CMakeFiles/kiibohd.elf.dir/Scan/ISSILed/led_scan.c.o
LED_readPage                                      CMakeFiles/kiibohd.elf.dir/Scan/ISSILed/led_scan.c.o
LED_scan                                          CMakeFiles/kiibohd.elf.dir/Scan/ISSILed/led_scan.c.o
                                                  CMakeFiles/kiibohd.elf.dir/Scan/MDErgo1-CustomLogo/scan_loop.c.o
LED_sendPage                                      CMakeFiles/kiibohd.elf.dir/Scan/ISSILed/led_scan.c.o
LED_setup                                         CMakeFiles/kiibohd.elf.dir/Scan/ISSILed/led_scan.c.o
                                                  CMakeFiles/kiibohd.elf.dir/Scan/MDErgo1-CustomLogo/scan_loop.c.o
LED_writeReg                                      CMakeFiles/kiibohd.elf.dir/Scan/ISSILed/led_scan.c.o
LED_zeroPages                                     CMakeFiles/kiibohd.elf.dir/Scan/ISSILed/led_scan.c.o
LayerIndex                                        CMakeFiles/kiibohd.elf.dir/Macro/PartialMap/macro.c.o
LayerState                                        CMakeFiles/kiibohd.elf.dir/Macro/PartialMap/macro.c.o
Macro_analogState                                 CMakeFiles/kiibohd.elf.dir/Macro/PartialMap/macro.c.o
Macro_appendResultMacroToPendingList              CMakeFiles/kiibohd.elf.dir/Macro/PartialMap/macro.c.o
                                                  CMakeFiles/kiibohd.elf.dir/Macro/PartialMap/trigger.c.o
Macro_evalTriggerMacro                            CMakeFiles/kiibohd.elf.dir/Macro/PartialMap/trigger.c.o
Macro_interconnectAdd                             CMakeFiles/kiibohd.elf.dir/Macro/PartialMap/macro.c.o
                                                  CMakeFiles/kiibohd.elf.dir/Scan/UARTConnect/connect_scan.c.o
Macro_keyState                                    CMakeFiles/kiibohd.elf.dir/Macro/PartialMap/macro.c.o
                                                  CMakeFiles/kiibohd.elf.dir/Scan/MatrixARM/matrix_scan.c.o
Macro_layerLatch_capability                       CMakeFiles/kiibohd.elf.dir/Macro/PartialMap/macro.c.o
Macro_layerLock_capability                        CMakeFiles/kiibohd.elf.dir/Macro/PartialMap/macro.c.o
Macro_layerLookup                                 CMakeFiles/kiibohd.elf.dir/Macro/PartialMap/macro.c.o
                                                  CMakeFiles/kiibohd.elf.dir/Macro/PartialMap/trigger.c.o
Macro_layerRotate_capability                      CMakeFiles/kiibohd.elf.dir/Macro/PartialMap/macro.c.o
Macro_layerShift_capability                       CMakeFiles/kiibohd.elf.dir/Macro/PartialMap/macro.c.o
Macro_layerState                                  CMakeFiles/kiibohd.elf.dir/Macro/PartialMap/macro.c.o
Macro_layerState_capability                       CMakeFiles/kiibohd.elf.dir/Macro/PartialMap/macro.c.o
Macro_ledState                                    CMakeFiles/kiibohd.elf.dir/Macro/PartialMap/macro.c.o
Macro_process                                     CMakeFiles/kiibohd.elf.dir/Macro/PartialMap/macro.c.o
                                                  CMakeFiles/kiibohd.elf.dir/main.c.o
Macro_rotationLayer                               CMakeFiles/kiibohd.elf.dir/Macro/PartialMap/macro.c.o
Macro_setup                                       CMakeFiles/kiibohd.elf.dir/Macro/PartialMap/macro.c.o
                                                  CMakeFiles/kiibohd.elf.dir/main.c.o
Matrix_cols                                       CMakeFiles/kiibohd.elf.dir/Scan/MatrixARM/matrix_scan.c.o
Matrix_currentChange                              CMakeFiles/kiibohd.elf.dir/Scan/MatrixARM/matrix_scan.c.o
                                                  CMakeFiles/kiibohd.elf.dir/Scan/MDErgo1-CustomLogo/scan_loop.c.o
Matrix_keyPositionDebug                           CMakeFiles/kiibohd.elf.dir/Scan/MatrixARM/matrix_scan.c.o
Matrix_pin                                        CMakeFiles/kiibohd.elf.dir/Scan/MatrixARM/matrix_scan.c.o
Matrix_rows                                       CMakeFiles/kiibohd.elf.dir/Scan/MatrixARM/matrix_scan.c.o
Matrix_scan                                       CMakeFiles/kiibohd.elf.dir/Scan/MatrixARM/matrix_scan.c.o
                                                  CMakeFiles/kiibohd.elf.dir/Scan/MDErgo1-CustomLogo/scan_loop.c.o
Matrix_scanArray                                  CMakeFiles/kiibohd.elf.dir/Scan/MatrixARM/matrix_scan.c.o
Matrix_setup                                      CMakeFiles/kiibohd.elf.dir/Scan/MatrixARM/matrix_scan.c.o
                                                  CMakeFiles/kiibohd.elf.dir/Scan/MDErgo1-CustomLogo/scan_loop.c.o
Matrix_type                                       CMakeFiles/kiibohd.elf.dir/Scan/MatrixARM/matrix_scan.c.o
Output_Available                                  CMakeFiles/kiibohd.elf.dir/Output/pjrcUSB/output_com.c.o
                                                  CMakeFiles/kiibohd.elf.dir/Output/pjrcUSB/arm/usb_dev.c.o
                                                  CMakeFiles/kiibohd.elf.dir/Scan/MDErgo1-CustomLogo/scan_loop.c.o
                                                  CMakeFiles/kiibohd.elf.dir/Scan/UARTConnect/connect_scan.c.o
Output_DebugMode                                  CMakeFiles/kiibohd.elf.dir/Output/pjrcUSB/output_com.c.o
                                                  CMakeFiles/kiibohd.elf.dir/Output/pjrcUSB/arm/usb_keyboard.c.o
Output_ExtCurrent_Available                       CMakeFiles/kiibohd.elf.dir/Output/pjrcUSB/output_com.c.o
Output_USBCurrent_Available                       CMakeFiles/kiibohd.elf.dir/Output/pjrcUSB/output_com.c.o
Output_availablechar                              CMakeFiles/kiibohd.elf.dir/Output/pjrcUSB/output_com.c.o
                                                  CMakeFiles/kiibohd.elf.dir/Debug/cli/cli.c.o
Output_consCtrlSend_capability                    CMakeFiles/kiibohd.elf.dir/Output/pjrcUSB/output_com.c.o
                                                  CMakeFiles/kiibohd.elf.dir/Macro/PartialMap/macro.c.o
Output_current_available                          CMakeFiles/kiibohd.elf.dir/Output/pjrcUSB/output_com.c.o
                                                  CMakeFiles/kiibohd.elf.dir/Scan/ISSILed/led_scan.c.o
Output_firmwareReload                             CMakeFiles/kiibohd.elf.dir/Output/pjrcUSB/output_com.c.o
Output_flashMode_capability                       CMakeFiles/kiibohd.elf.dir/Output/pjrcUSB/output_com.c.o
                                                  CMakeFiles/kiibohd.elf.dir/Macro/PartialMap/macro.c.o
Output_flushBuffers                               CMakeFiles/kiibohd.elf.dir/Output/pjrcUSB/output_com.c.o
Output_getchar                                    CMakeFiles/kiibohd.elf.dir/Output/pjrcUSB/output_com.c.o
                                                  CMakeFiles/kiibohd.elf.dir/Debug/cli/cli.c.o
Output_kbdProtocolBoot_capability                 CMakeFiles/kiibohd.elf.dir/Output/pjrcUSB/output_com.c.o
                                                  CMakeFiles/kiibohd.elf.dir/Macro/PartialMap/macro.c.o
Output_kbdProtocolNKRO_capability                 CMakeFiles/kiibohd.elf.dir/Output/pjrcUSB/output_com.c.o
                                                  CMakeFiles/kiibohd.elf.dir/Macro/PartialMap/macro.c.o
Output_noneSend_capability                        CMakeFiles/kiibohd.elf.dir/Output/pjrcUSB/output_com.c.o
                                                  CMakeFiles/kiibohd.elf.dir/Macro/PartialMap/macro.c.o
Output_putchar                                    CMakeFiles/kiibohd.elf.dir/Output/pjrcUSB/output_com.c.o
Output_putstr                                     CMakeFiles/kiibohd.elf.dir/Output/pjrcUSB/output_com.c.o
                                                  CMakeFiles/kiibohd.elf.dir/Debug/print/print.c.o
                                                  CMakeFiles/kiibohd.elf.dir/Debug/cli/cli.c.o
                                                  CMakeFiles/kiibohd.elf.dir/Macro/PartialMap/macro.c.o
                                                  CMakeFiles/kiibohd.elf.dir/Scan/UARTConnect/connect_scan.c.o
                                                  CMakeFiles/kiibohd.elf.dir/Scan/ISSILed/led_scan.c.o
Output_send                                       CMakeFiles/kiibohd.elf.dir/Output/pjrcUSB/output_com.c.o
                                                  CMakeFiles/kiibohd.elf.dir/main.c.o
Output_setup                                      CMakeFiles/kiibohd.elf.dir/Output/pjrcUSB/output_com.c.o
                                                  CMakeFiles/kiibohd.elf.dir/main.c.o
Output_softReset                                  CMakeFiles/kiibohd.elf.dir/Output/pjrcUSB/output_com.c.o
                                                  CMakeFiles/kiibohd.elf.dir/Debug/cli/cli.c.o
Output_sysCtrlSend_capability                     CMakeFiles/kiibohd.elf.dir/Output/pjrcUSB/output_com.c.o
                                                  CMakeFiles/kiibohd.elf.dir/Macro/PartialMap/macro.c.o
Output_update_external_current                    CMakeFiles/kiibohd.elf.dir/Output/pjrcUSB/output_com.c.o
                                                  CMakeFiles/kiibohd.elf.dir/Scan/UARTConnect/connect_scan.c.o
Output_update_usb_current                         CMakeFiles/kiibohd.elf.dir/Output/pjrcUSB/output_com.c.o
                                                  CMakeFiles/kiibohd.elf.dir/Output/pjrcUSB/arm/usb_dev.c.o
Output_usbCodeSend_capability                     CMakeFiles/kiibohd.elf.dir/Output/pjrcUSB/output_com.c.o
                                                  CMakeFiles/kiibohd.elf.dir/Macro/PartialMap/macro.c.o
Output_usbMouse_capability                        CMakeFiles/kiibohd.elf.dir/Output/pjrcUSB/output_com.c.o
                                                  CMakeFiles/kiibohd.elf.dir/Macro/PartialMap/macro.c.o
ResetHandler                                      CMakeFiles/kiibohd.elf.dir/Lib/mk20dx.c.o
ResultMacroList                                   CMakeFiles/kiibohd.elf.dir/Macro/PartialMap/macro.c.o
                                                  CMakeFiles/kiibohd.elf.dir/Macro/PartialMap/trigger.c.o
                                                  CMakeFiles/kiibohd.elf.dir/Macro/PartialMap/result.c.o
ResultMacroRecordList                             CMakeFiles/kiibohd.elf.dir/Macro/PartialMap/macro.c.o
                                                  CMakeFiles/kiibohd.elf.dir/Macro/PartialMap/result.c.o
Result_add                                        CMakeFiles/kiibohd.elf.dir/Macro/PartialMap/result.c.o
Result_process                                    CMakeFiles/kiibohd.elf.dir/Macro/PartialMap/result.c.o
                                                  CMakeFiles/kiibohd.elf.dir/Macro/PartialMap/macro.c.o
Result_setup                                      CMakeFiles/kiibohd.elf.dir/Macro/PartialMap/result.c.o
                                                  CMakeFiles/kiibohd.elf.dir/Macro/PartialMap/macro.c.o
SPI_write                                         CMakeFiles/kiibohd.elf.dir/Scan/STLcd/lcd_scan.c.o
STLcdDefaultImage                                 CMakeFiles/kiibohd.elf.dir/Scan/STLcd/lcd_scan.c.o
Scan_currentChange                                CMakeFiles/kiibohd.elf.dir/Scan/MDErgo1-CustomLogo/scan_loop.c.o
                                                  CMakeFiles/kiibohd.elf.dir/Output/pjrcUSB/output_com.c.o
Scan_finishedWithMacro                            CMakeFiles/kiibohd.elf.dir/Scan/MDErgo1-CustomLogo/scan_loop.c.o
                                                  CMakeFiles/kiibohd.elf.dir/Macro/PartialMap/macro.c.o
Scan_finishedWithOutput                           CMakeFiles/kiibohd.elf.dir/Scan/MDErgo1-CustomLogo/scan_loop.c.o
                                                  CMakeFiles/kiibohd.elf.dir/Output/pjrcUSB/output_com.c.o
Scan_loop                                         CMakeFiles/kiibohd.elf.dir/Scan/MDErgo1-CustomLogo/scan_loop.c.o
                                                  CMakeFiles/kiibohd.elf.dir/main.c.o
Scan_scanCount                                    CMakeFiles/kiibohd.elf.dir/Scan/MDErgo1-CustomLogo/scan_loop.c.o
Scan_setup                                        CMakeFiles/kiibohd.elf.dir/Scan/MDErgo1-CustomLogo/scan_loop.c.o
                                                  CMakeFiles/kiibohd.elf.dir/main.c.o
TriggerMacroList                                  CMakeFiles/kiibohd.elf.dir/Macro/PartialMap/macro.c.o
                                                  CMakeFiles/kiibohd.elf.dir/Macro/PartialMap/trigger.c.o
TriggerMacroRecordList                            CMakeFiles/kiibohd.elf.dir/Macro/PartialMap/macro.c.o
                                                  CMakeFiles/kiibohd.elf.dir/Macro/PartialMap/trigger.c.o
Trigger_process                                   CMakeFiles/kiibohd.elf.dir/Macro/PartialMap/trigger.c.o
                                                  CMakeFiles/kiibohd.elf.dir/Macro/PartialMap/macro.c.o
Trigger_setup                                     CMakeFiles/kiibohd.elf.dir/Macro/PartialMap/trigger.c.o
                                                  CMakeFiles/kiibohd.elf.dir/Macro/PartialMap/macro.c.o
Trigger_state                                     CMakeFiles/kiibohd.elf.dir/Macro/PartialMap/trigger.c.o
Trigger_update                                    CMakeFiles/kiibohd.elf.dir/Macro/PartialMap/trigger.c.o
USBKeys_Changed                                   CMakeFiles/kiibohd.elf.dir/Output/pjrcUSB/output_com.c.o
                                                  CMakeFiles/kiibohd.elf.dir/Output/pjrcUSB/arm/usb_keyboard.c.o
USBKeys_ConsCtrl                                  CMakeFiles/kiibohd.elf.dir/Output/pjrcUSB/output_com.c.o
                                                  CMakeFiles/kiibohd.elf.dir/Output/pjrcUSB/arm/usb_keyboard.c.o
USBKeys_Idle_Config                               CMakeFiles/kiibohd.elf.dir/Output/pjrcUSB/output_com.c.o
                                                  CMakeFiles/kiibohd.elf.dir/Output/pjrcUSB/arm/usb_dev.c.o
USBKeys_Idle_Count                                CMakeFiles/kiibohd.elf.dir/Output/pjrcUSB/output_com.c.o
                                                  CMakeFiles/kiibohd.elf.dir/Output/pjrcUSB/arm/usb_dev.c.o
USBKeys_Keys                                      CMakeFiles/kiibohd.elf.dir/Output/pjrcUSB/output_com.c.o
                                                  CMakeFiles/kiibohd.elf.dir/Output/pjrcUSB/arm/usb_keyboard.c.o
USBKeys_KeysCLI                                   CMakeFiles/kiibohd.elf.dir/Output/pjrcUSB/output_com.c.o
USBKeys_LEDs                                      CMakeFiles/kiibohd.elf.dir/Output/pjrcUSB/output_com.c.o
                                                  CMakeFiles/kiibohd.elf.dir/Output/pjrcUSB/arm/usb_dev.c.o
USBKeys_Modifiers                                 CMakeFiles/kiibohd.elf.dir/Output/pjrcUSB/output_com.c.o
                                                  CMakeFiles/kiibohd.elf.dir/Output/pjrcUSB/arm/usb_keyboard.c.o
                                                  CMakeFiles/kiibohd.elf.dir/Macro/PartialMap/macro.c.o
USBKeys_ModifiersCLI                              CMakeFiles/kiibohd.elf.dir/Output/pjrcUSB/output_com.c.o
USBKeys_Protocol                                  CMakeFiles/kiibohd.elf.dir/Output/pjrcUSB/output_com.c.o
                                                  CMakeFiles/kiibohd.elf.dir/Output/pjrcUSB/arm/usb_keyboard.c.o
                                                  CMakeFiles/kiibohd.elf.dir/Output/pjrcUSB/arm/usb_dev.c.o
USBKeys_Sent                                      CMakeFiles/kiibohd.elf.dir/Output/pjrcUSB/output_com.c.o
                                                  CMakeFiles/kiibohd.elf.dir/Macro/PartialMap/macro.c.o
USBKeys_SentCLI                                   CMakeFiles/kiibohd.elf.dir/Output/pjrcUSB/output_com.c.o
USBKeys_SysCtrl                                   CMakeFiles/kiibohd.elf.dir/Output/pjrcUSB/output_com.c.o
                                                  CMakeFiles/kiibohd.elf.dir/Output/pjrcUSB/arm/usb_keyboard.c.o
USBMouse_Buttons                                  CMakeFiles/kiibohd.elf.dir/Output/pjrcUSB/output_com.c.o
                                                  CMakeFiles/kiibohd.elf.dir/Output/pjrcUSB/arm/usb_mouse.c.o
USBMouse_Changed                                  CMakeFiles/kiibohd.elf.dir/Output/pjrcUSB/output_com.c.o
                                                  CMakeFiles/kiibohd.elf.dir/Output/pjrcUSB/arm/usb_mouse.c.o
USBMouse_Relative_x                               CMakeFiles/kiibohd.elf.dir/Output/pjrcUSB/output_com.c.o
                                                  CMakeFiles/kiibohd.elf.dir/Output/pjrcUSB/arm/usb_mouse.c.o
USBMouse_Relative_y                               CMakeFiles/kiibohd.elf.dir/Output/pjrcUSB/output_com.c.o
                                                  CMakeFiles/kiibohd.elf.dir/Output/pjrcUSB/arm/usb_mouse.c.o
__brkval                                          CMakeFiles/kiibohd.elf.dir/Lib/mk20dx.c.o
_ebss                                             CMakeFiles/kiibohd.elf.dir/Lib/mk20dx.c.o
_edata                                            CMakeFiles/kiibohd.elf.dir/Lib/mk20dx.c.o
_estack                                           CMakeFiles/kiibohd.elf.dir/Lib/mk20dx.c.o
_etext                                            CMakeFiles/kiibohd.elf.dir/Lib/mk20dx.c.o
_print                                            CMakeFiles/kiibohd.elf.dir/Debug/print/print.c.o
                                                  CMakeFiles/kiibohd.elf.dir/Debug/cli/cli.c.o
                                                  CMakeFiles/kiibohd.elf.dir/Output/pjrcUSB/arm/usb_mouse.c.o
                                                  CMakeFiles/kiibohd.elf.dir/Output/pjrcUSB/arm/usb_keyboard.c.o
                                                  CMakeFiles/kiibohd.elf.dir/Output/pjrcUSB/arm/usb_dev.c.o
                                                  CMakeFiles/kiibohd.elf.dir/Output/pjrcUSB/output_com.c.o
                                                  CMakeFiles/kiibohd.elf.dir/Macro/PartialMap/trigger.c.o
                                                  CMakeFiles/kiibohd.elf.dir/Macro/PartialMap/macro.c.o
                                                  CMakeFiles/kiibohd.elf.dir/Scan/UARTConnect/connect_scan.c.o
                                                  CMakeFiles/kiibohd.elf.dir/Scan/STLcd/lcd_scan.c.o
                                                  CMakeFiles/kiibohd.elf.dir/Scan/MatrixARM/matrix_scan.c.o
                                                  CMakeFiles/kiibohd.elf.dir/Scan/ISSILed/led_scan.c.o
                                                  CMakeFiles/kiibohd.elf.dir/Lib/mk20dx.c.o
_sbrk                                             CMakeFiles/kiibohd.elf.dir/Lib/mk20dx.c.o
_sbss                                             CMakeFiles/kiibohd.elf.dir/Lib/mk20dx.c.o
_sdata                                            CMakeFiles/kiibohd.elf.dir/Lib/mk20dx.c.o
adc0_isr                                          CMakeFiles/kiibohd.elf.dir/Lib/mk20dx.c.o
adc1_isr                                          CMakeFiles/kiibohd.elf.dir/Lib/mk20dx.c.o
basicCLIDict                                      CMakeFiles/kiibohd.elf.dir/Debug/cli/cli.c.o
basicCLIDictName                                  CMakeFiles/kiibohd.elf.dir/Debug/cli/cli.c.o
bus_fault_default_isr                             CMakeFiles/kiibohd.elf.dir/Lib/mk20dx.c.o
bus_fault_isr                                     CMakeFiles/kiibohd.elf.dir/Lib/mk20dx.c.o
can0_bus_off_isr                                  CMakeFiles/kiibohd.elf.dir/Lib/mk20dx.c.o
can0_error_isr                                    CMakeFiles/kiibohd.elf.dir/Lib/mk20dx.c.o
can0_message_isr                                  CMakeFiles/kiibohd.elf.dir/Lib/mk20dx.c.o
can0_rx_warn_isr                                  CMakeFiles/kiibohd.elf.dir/Lib/mk20dx.c.o
can0_tx_warn_isr                                  CMakeFiles/kiibohd.elf.dir/Lib/mk20dx.c.o
can0_wakeup_isr                                   CMakeFiles/kiibohd.elf.dir/Lib/mk20dx.c.o
capListCLIDict_DescEntry                          CMakeFiles/kiibohd.elf.dir/Macro/PartialMap/macro.c.o
capSelectCLIDict_DescEntry                        CMakeFiles/kiibohd.elf.dir/Macro/PartialMap/macro.c.o
clearCLIDict_DescEntry                            CMakeFiles/kiibohd.elf.dir/Debug/cli/cli.c.o
cliDebugCLIDict_DescEntry                         CMakeFiles/kiibohd.elf.dir/Debug/cli/cli.c.o
cliFullToggleState                                CMakeFiles/kiibohd.elf.dir/Scan/STLcd/lcd_scan.c.o
cliFunc_capList                                   CMakeFiles/kiibohd.elf.dir/Macro/PartialMap/macro.c.o
cliFunc_capSelect                                 CMakeFiles/kiibohd.elf.dir/Macro/PartialMap/macro.c.o
cliFunc_clear                                     CMakeFiles/kiibohd.elf.dir/Debug/cli/cli.c.o
cliFunc_cliDebug                                  CMakeFiles/kiibohd.elf.dir/Debug/cli/cli.c.o
cliFunc_connectCmd                                CMakeFiles/kiibohd.elf.dir/Scan/UARTConnect/connect_scan.c.o
cliFunc_connectDbg                                CMakeFiles/kiibohd.elf.dir/Scan/UARTConnect/connect_scan.c.o
cliFunc_connectIdl                                CMakeFiles/kiibohd.elf.dir/Scan/UARTConnect/connect_scan.c.o
cliFunc_connectLst                                CMakeFiles/kiibohd.elf.dir/Scan/UARTConnect/connect_scan.c.o
cliFunc_connectMst                                CMakeFiles/kiibohd.elf.dir/Scan/UARTConnect/connect_scan.c.o
cliFunc_connectRst                                CMakeFiles/kiibohd.elf.dir/Scan/UARTConnect/connect_scan.c.o
cliFunc_connectSts                                CMakeFiles/kiibohd.elf.dir/Scan/UARTConnect/connect_scan.c.o
cliFunc_help                                      CMakeFiles/kiibohd.elf.dir/Debug/cli/cli.c.o
cliFunc_i2cRecv                                   CMakeFiles/kiibohd.elf.dir/Scan/ISSILed/led_scan.c.o
cliFunc_i2cSend                                   CMakeFiles/kiibohd.elf.dir/Scan/ISSILed/led_scan.c.o
cliFunc_kbdProtocol                               CMakeFiles/kiibohd.elf.dir/Output/pjrcUSB/output_com.c.o
cliFunc_keyHold                                   CMakeFiles/kiibohd.elf.dir/Macro/PartialMap/macro.c.o
cliFunc_keyPress                                  CMakeFiles/kiibohd.elf.dir/Macro/PartialMap/macro.c.o
cliFunc_keyRelease                                CMakeFiles/kiibohd.elf.dir/Macro/PartialMap/macro.c.o
cliFunc_layerDebug                                CMakeFiles/kiibohd.elf.dir/Macro/PartialMap/macro.c.o
cliFunc_layerList                                 CMakeFiles/kiibohd.elf.dir/Macro/PartialMap/macro.c.o
cliFunc_layerState                                CMakeFiles/kiibohd.elf.dir/Macro/PartialMap/macro.c.o
cliFunc_lcdCmd                                    CMakeFiles/kiibohd.elf.dir/Scan/STLcd/lcd_scan.c.o
cliFunc_lcdColor                                  CMakeFiles/kiibohd.elf.dir/Scan/STLcd/lcd_scan.c.o
cliFunc_lcdDisp                                   CMakeFiles/kiibohd.elf.dir/Scan/STLcd/lcd_scan.c.o
cliFunc_lcdInit                                   CMakeFiles/kiibohd.elf.dir/Scan/STLcd/lcd_scan.c.o
cliFunc_lcdTest                                   CMakeFiles/kiibohd.elf.dir/Scan/STLcd/lcd_scan.c.o
cliFunc_led                                       CMakeFiles/kiibohd.elf.dir/Debug/cli/cli.c.o
cliFunc_ledCtrl                                   CMakeFiles/kiibohd.elf.dir/Scan/ISSILed/led_scan.c.o
cliFunc_ledRPage                                  CMakeFiles/kiibohd.elf.dir/Scan/ISSILed/led_scan.c.o
cliFunc_ledStart                                  CMakeFiles/kiibohd.elf.dir/Scan/ISSILed/led_scan.c.o
cliFunc_ledTest                                   CMakeFiles/kiibohd.elf.dir/Scan/ISSILed/led_scan.c.o
cliFunc_ledWPage                                  CMakeFiles/kiibohd.elf.dir/Scan/ISSILed/led_scan.c.o
cliFunc_ledZero                                   CMakeFiles/kiibohd.elf.dir/Scan/ISSILed/led_scan.c.o
cliFunc_macroDebug                                CMakeFiles/kiibohd.elf.dir/Macro/PartialMap/macro.c.o
cliFunc_macroList                                 CMakeFiles/kiibohd.elf.dir/Macro/PartialMap/macro.c.o
cliFunc_macroProc                                 CMakeFiles/kiibohd.elf.dir/Macro/PartialMap/macro.c.o
cliFunc_macroShow                                 CMakeFiles/kiibohd.elf.dir/Macro/PartialMap/macro.c.o
cliFunc_macroStep                                 CMakeFiles/kiibohd.elf.dir/Macro/PartialMap/macro.c.o
cliFunc_matrixDebug                               CMakeFiles/kiibohd.elf.dir/Scan/MatrixARM/matrix_scan.c.o
cliFunc_matrixInfo                                CMakeFiles/kiibohd.elf.dir/Scan/MatrixARM/matrix_scan.c.o
cliFunc_matrixState                               CMakeFiles/kiibohd.elf.dir/Scan/MatrixARM/matrix_scan.c.o
cliFunc_outputDebug                               CMakeFiles/kiibohd.elf.dir/Output/pjrcUSB/output_com.c.o
cliFunc_readLEDs                                  CMakeFiles/kiibohd.elf.dir/Output/pjrcUSB/output_com.c.o
cliFunc_reload                                    CMakeFiles/kiibohd.elf.dir/Debug/cli/cli.c.o
cliFunc_reset                                     CMakeFiles/kiibohd.elf.dir/Debug/cli/cli.c.o
cliFunc_restart                                   CMakeFiles/kiibohd.elf.dir/Debug/cli/cli.c.o
cliFunc_sendKeys                                  CMakeFiles/kiibohd.elf.dir/Output/pjrcUSB/output_com.c.o
cliFunc_setKeys                                   CMakeFiles/kiibohd.elf.dir/Output/pjrcUSB/output_com.c.o
cliFunc_setMod                                    CMakeFiles/kiibohd.elf.dir/Output/pjrcUSB/output_com.c.o
cliFunc_version                                   CMakeFiles/kiibohd.elf.dir/Debug/cli/cli.c.o
cliNormalReverseToggleState                       CMakeFiles/kiibohd.elf.dir/Scan/STLcd/lcd_scan.c.o
cmp0_isr                                          CMakeFiles/kiibohd.elf.dir/Lib/mk20dx.c.o
cmp1_isr                                          CMakeFiles/kiibohd.elf.dir/Lib/mk20dx.c.o
cmp2_isr                                          CMakeFiles/kiibohd.elf.dir/Lib/mk20dx.c.o
cmt_isr                                           CMakeFiles/kiibohd.elf.dir/Lib/mk20dx.c.o
connectCmdCLIDict_DescEntry                       CMakeFiles/kiibohd.elf.dir/Scan/UARTConnect/connect_scan.c.o
connectDbgCLIDict_DescEntry                       CMakeFiles/kiibohd.elf.dir/Scan/UARTConnect/connect_scan.c.o
connectIdlCLIDict_DescEntry                       CMakeFiles/kiibohd.elf.dir/Scan/UARTConnect/connect_scan.c.o
connectLstCLIDict_DescEntry                       CMakeFiles/kiibohd.elf.dir/Scan/UARTConnect/connect_scan.c.o
connectMstCLIDict_DescEntry                       CMakeFiles/kiibohd.elf.dir/Scan/UARTConnect/connect_scan.c.o
connectRstCLIDict_DescEntry                       CMakeFiles/kiibohd.elf.dir/Scan/UARTConnect/connect_scan.c.o
connectStsCLIDict_DescEntry                       CMakeFiles/kiibohd.elf.dir/Scan/UARTConnect/connect_scan.c.o
dac0_isr                                          CMakeFiles/kiibohd.elf.dir/Lib/mk20dx.c.o
dac1_isr                                          CMakeFiles/kiibohd.elf.dir/Lib/mk20dx.c.o
debugmonitor_isr                                  CMakeFiles/kiibohd.elf.dir/Lib/mk20dx.c.o
default_scanMap                                   CMakeFiles/kiibohd.elf.dir/Macro/PartialMap/macro.c.o
default_tl_0x02                                   CMakeFiles/kiibohd.elf.dir/Macro/PartialMap/macro.c.o
default_tl_0x03                                   CMakeFiles/kiibohd.elf.dir/Macro/PartialMap/macro.c.o
default_tl_0x04                                   CMakeFiles/kiibohd.elf.dir/Macro/PartialMap/macro.c.o
default_tl_0x05                                   CMakeFiles/kiibohd.elf.dir/Macro/PartialMap/macro.c.o
default_tl_0x06                                   CMakeFiles/kiibohd.elf.dir/Macro/PartialMap/macro.c.o
default_tl_0x07                                   CMakeFiles/kiibohd.elf.dir/Macro/PartialMap/macro.c.o
default_tl_0x08                                   CMakeFiles/kiibohd.elf.dir/Macro/PartialMap/macro.c.o
default_tl_0x09                                   CMakeFiles/kiibohd.elf.dir/Macro/PartialMap/macro.c.o
default_tl_0x0A                                   CMakeFiles/kiibohd.elf.dir/Macro/PartialMap/macro.c.o
default_tl_0x0B                                   CMakeFiles/kiibohd.elf.dir/Macro/PartialMap/macro.c.o
default_tl_0x0C                                   CMakeFiles/kiibohd.elf.dir/Macro/PartialMap/macro.c.o
default_tl_0x0D                                   CMakeFiles/kiibohd.elf.dir/Macro/PartialMap/macro.c.o
default_tl_0x0E                                   CMakeFiles/kiibohd.elf.dir/Macro/PartialMap/macro.c.o
default_tl_0x0F                                   CMakeFiles/kiibohd.elf.dir/Macro/PartialMap/macro.c.o
default_tl_0x10                                   CMakeFiles/kiibohd.elf.dir/Macro/PartialMap/macro.c.o
default_tl_0x11                                   CMakeFiles/kiibohd.elf.dir/Macro/PartialMap/macro.c.o
default_tl_0x12                                   CMakeFiles/kiibohd.elf.dir/Macro/PartialMap/macro.c.o
default_tl_0x13                                   CMakeFiles/kiibohd.elf.dir/Macro/PartialMap/macro.c.o
default_tl_0x14                                   CMakeFiles/kiibohd.elf.dir/Macro/PartialMap/macro.c.o
default_tl_0x15                                   CMakeFiles/kiibohd.elf.dir/Macro/PartialMap/macro.c.o
default_tl_0x16                                   CMakeFiles/kiibohd.elf.dir/Macro/PartialMap/macro.c.o
default_tl_0x17                                   CMakeFiles/kiibohd.elf.dir/Macro/PartialMap/macro.c.o
default_tl_0x18                                   CMakeFiles/kiibohd.elf.dir/Macro/PartialMap/macro.c.o
default_tl_0x19                                   CMakeFiles/kiibohd.elf.dir/Macro/PartialMap/macro.c.o
default_tl_0x1A                                   CMakeFiles/kiibohd.elf.dir/Macro/PartialMap/macro.c.o
default_tl_0x1B                                   CMakeFiles/kiibohd.elf.dir/Macro/PartialMap/macro.c.o
default_tl_0x1C                                   CMakeFiles/kiibohd.elf.dir/Macro/PartialMap/macro.c.o
default_tl_0x1D                                   CMakeFiles/kiibohd.elf.dir/Macro/PartialMap/macro.c.o
default_tl_0x1E                                   CMakeFiles/kiibohd.elf.dir/Macro/PartialMap/macro.c.o
default_tl_0x1F                                   CMakeFiles/kiibohd.elf.dir/Macro/PartialMap/macro.c.o
default_tl_0x20                                   CMakeFiles/kiibohd.elf.dir/Macro/PartialMap/macro.c.o
default_tl_0x21                                   CMakeFiles/kiibohd.elf.dir/Macro/PartialMap/macro.c.o
default_tl_0x22                                   CMakeFiles/kiibohd.elf.dir/Macro/PartialMap/macro.c.o
default_tl_0x23                                   CMakeFiles/kiibohd.elf.dir/Macro/PartialMap/macro.c.o
default_tl_0x24                                   CMakeFiles/kiibohd.elf.dir/Macro/PartialMap/macro.c.o
default_tl_0x25                                   CMakeFiles/kiibohd.elf.dir/Macro/PartialMap/macro.c.o
default_tl_0x26                                   CMakeFiles/kiibohd.elf.dir/Macro/PartialMap/macro.c.o
default_tl_0x27                                   CMakeFiles/kiibohd.elf.dir/Macro/PartialMap/macro.c.o
default_tl_0x28                                   CMakeFiles/kiibohd.elf.dir/Macro/PartialMap/macro.c.o
default_tl_0x29                                   CMakeFiles/kiibohd.elf.dir/Macro/PartialMap/macro.c.o
default_tl_0x2A                                   CMakeFiles/kiibohd.elf.dir/Macro/PartialMap/macro.c.o
default_tl_0x2B                                   CMakeFiles/kiibohd.elf.dir/Macro/PartialMap/macro.c.o
default_tl_0x2C                                   CMakeFiles/kiibohd.elf.dir/Macro/PartialMap/macro.c.o
default_tl_0x2D                                   CMakeFiles/kiibohd.elf.dir/Macro/PartialMap/macro.c.o
default_tl_0x2E                                   CMakeFiles/kiibohd.elf.dir/Macro/PartialMap/macro.c.o
default_tl_0x2F                                   CMakeFiles/kiibohd.elf.dir/Macro/PartialMap/macro.c.o
default_tl_0x30                                   CMakeFiles/kiibohd.elf.dir/Macro/PartialMap/macro.c.o
default_tl_0x31                                   CMakeFiles/kiibohd.elf.dir/Macro/PartialMap/macro.c.o
default_tl_0x32                                   CMakeFiles/kiibohd.elf.dir/Macro/PartialMap/macro.c.o
default_tl_0x33                                   CMakeFiles/kiibohd.elf.dir/Macro/PartialMap/macro.c.o
default_tl_0x34                                   CMakeFiles/kiibohd.elf.dir/Macro/PartialMap/macro.c.o
default_tl_0x35                                   CMakeFiles/kiibohd.elf.dir/Macro/PartialMap/macro.c.o
default_tl_0x36                                   CMakeFiles/kiibohd.elf.dir/Macro/PartialMap/macro.c.o
default_tl_0x37                                   CMakeFiles/kiibohd.elf.dir/Macro/PartialMap/macro.c.o
default_tl_0x38                                   CMakeFiles/kiibohd.elf.dir/Macro/PartialMap/macro.c.o
default_tl_0x39                                   CMakeFiles/kiibohd.elf.dir/Macro/PartialMap/macro.c.o
default_tl_0x3A                                   CMakeFiles/kiibohd.elf.dir/Macro/PartialMap/macro.c.o
default_tl_0x3B                                   CMakeFiles/kiibohd.elf.dir/Macro/PartialMap/macro.c.o
default_tl_0x3C                                   CMakeFiles/kiibohd.elf.dir/Macro/PartialMap/macro.c.o
default_tl_0x3D                                   CMakeFiles/kiibohd.elf.dir/Macro/PartialMap/macro.c.o
default_tl_0x3E                                   CMakeFiles/kiibohd.elf.dir/Macro/PartialMap/macro.c.o
default_tl_0x3F                                   CMakeFiles/kiibohd.elf.dir/Macro/PartialMap/macro.c.o
default_tl_0x40                                   CMakeFiles/kiibohd.elf.dir/Macro/PartialMap/macro.c.o
default_tl_0x41                                   CMakeFiles/kiibohd.elf.dir/Macro/PartialMap/macro.c.o
default_tl_0x42                                   CMakeFiles/kiibohd.elf.dir/Macro/PartialMap/macro.c.o
default_tl_0x43                                   CMakeFiles/kiibohd.elf.dir/Macro/PartialMap/macro.c.o
default_tl_0x44                                   CMakeFiles/kiibohd.elf.dir/Macro/PartialMap/macro.c.o
default_tl_0x45                                   CMakeFiles/kiibohd.elf.dir/Macro/PartialMap/macro.c.o
default_tl_0x46                                   CMakeFiles/kiibohd.elf.dir/Macro/PartialMap/macro.c.o
default_tl_0x47                                   CMakeFiles/kiibohd.elf.dir/Macro/PartialMap/macro.c.o
default_tl_0x48                                   CMakeFiles/kiibohd.elf.dir/Macro/PartialMap/macro.c.o
default_tl_0x49                                   CMakeFiles/kiibohd.elf.dir/Macro/PartialMap/macro.c.o
default_tl_0x4A                                   CMakeFiles/kiibohd.elf.dir/Macro/PartialMap/macro.c.o
default_tl_0x4B                                   CMakeFiles/kiibohd.elf.dir/Macro/PartialMap/macro.c.o
default_tl_0x4C                                   CMakeFiles/kiibohd.elf.dir/Macro/PartialMap/macro.c.o
default_tl_0x4D                                   CMakeFiles/kiibohd.elf.dir/Macro/PartialMap/macro.c.o
default_tl_0x4E                                   CMakeFiles/kiibohd.elf.dir/Macro/PartialMap/macro.c.o
default_tl_0x4F                                   CMakeFiles/kiibohd.elf.dir/Macro/PartialMap/macro.c.o
default_tl_0x50                                   CMakeFiles/kiibohd.elf.dir/Macro/PartialMap/macro.c.o
default_tl_0x51                                   CMakeFiles/kiibohd.elf.dir/Macro/PartialMap/macro.c.o
default_tl_0x52                                   CMakeFiles/kiibohd.elf.dir/Macro/PartialMap/macro.c.o
default_tl_0x53                                   CMakeFiles/kiibohd.elf.dir/Macro/PartialMap/macro.c.o
default_tl_0x54                                   CMakeFiles/kiibohd.elf.dir/Macro/PartialMap/macro.c.o
default_tl_0x55                                   CMakeFiles/kiibohd.elf.dir/Macro/PartialMap/macro.c.o
default_tl_0x56                                   CMakeFiles/kiibohd.elf.dir/Macro/PartialMap/macro.c.o
default_tl_0x57                                   CMakeFiles/kiibohd.elf.dir/Macro/PartialMap/macro.c.o
default_tl_0x58                                   CMakeFiles/kiibohd.elf.dir/Macro/PartialMap/macro.c.o
default_tl_0x59                                   CMakeFiles/kiibohd.elf.dir/Macro/PartialMap/macro.c.o
delay                                             CMakeFiles/kiibohd.elf.dir/Lib/delay.c.o
                                                  CMakeFiles/kiibohd.elf.dir/Output/pjrcUSB/arm/usb_dev.c.o
                                                  CMakeFiles/kiibohd.elf.dir/Scan/UARTConnect/connect_scan.c.o
                                                  CMakeFiles/kiibohd.elf.dir/Scan/ISSILed/led_scan.c.o
dma_ch0_isr                                       CMakeFiles/kiibohd.elf.dir/Lib/mk20dx.c.o
dma_ch10_isr                                      CMakeFiles/kiibohd.elf.dir/Lib/mk20dx.c.o
dma_ch11_isr                                      CMakeFiles/kiibohd.elf.dir/Lib/mk20dx.c.o
dma_ch12_isr                                      CMakeFiles/kiibohd.elf.dir/Lib/mk20dx.c.o
dma_ch13_isr                                      CMakeFiles/kiibohd.elf.dir/Lib/mk20dx.c.o
dma_ch14_isr                                      CMakeFiles/kiibohd.elf.dir/Lib/mk20dx.c.o
dma_ch15_isr                                      CMakeFiles/kiibohd.elf.dir/Lib/mk20dx.c.o
dma_ch1_isr                                       CMakeFiles/kiibohd.elf.dir/Lib/mk20dx.c.o
dma_ch2_isr                                       CMakeFiles/kiibohd.elf.dir/Lib/mk20dx.c.o
dma_ch3_isr                                       CMakeFiles/kiibohd.elf.dir/Lib/mk20dx.c.o
dma_ch4_isr                                       CMakeFiles/kiibohd.elf.dir/Lib/mk20dx.c.o
dma_ch5_isr                                       CMakeFiles/kiibohd.elf.dir/Lib/mk20dx.c.o
dma_ch6_isr                                       CMakeFiles/kiibohd.elf.dir/Lib/mk20dx.c.o
dma_ch7_isr                                       CMakeFiles/kiibohd.elf.dir/Lib/mk20dx.c.o
dma_ch8_isr                                       CMakeFiles/kiibohd.elf.dir/Lib/mk20dx.c.o
dma_ch9_isr                                       CMakeFiles/kiibohd.elf.dir/Lib/mk20dx.c.o
dma_error_isr                                     CMakeFiles/kiibohd.elf.dir/Lib/mk20dx.c.o
eqStr                                             CMakeFiles/kiibohd.elf.dir/Debug/print/print.c.o
                                                  CMakeFiles/kiibohd.elf.dir/Debug/cli/cli.c.o
errorLED                                          CMakeFiles/kiibohd.elf.dir/Debug/led/led.c.o
                                                  CMakeFiles/kiibohd.elf.dir/Debug/cli/cli.c.o
fault_isr                                         CMakeFiles/kiibohd.elf.dir/Lib/mk20dx.c.o
flash_cmd_isr                                     CMakeFiles/kiibohd.elf.dir/Lib/mk20dx.c.o
flash_error_isr                                   CMakeFiles/kiibohd.elf.dir/Lib/mk20dx.c.o
ftm0_isr                                          CMakeFiles/kiibohd.elf.dir/Lib/mk20dx.c.o
ftm1_isr                                          CMakeFiles/kiibohd.elf.dir/Lib/mk20dx.c.o
ftm2_isr                                          CMakeFiles/kiibohd.elf.dir/Lib/mk20dx.c.o
ftm3_isr                                          CMakeFiles/kiibohd.elf.dir/Lib/mk20dx.c.o
gVectors                                          CMakeFiles/kiibohd.elf.dir/Lib/mk20dx.c.o
hard_fault_default_isr                            CMakeFiles/kiibohd.elf.dir/Lib/mk20dx.c.o
hard_fault_isr                                    CMakeFiles/kiibohd.elf.dir/Lib/mk20dx.c.o
helpCLIDict_DescEntry                             CMakeFiles/kiibohd.elf.dir/Debug/cli/cli.c.o
hex32ToStr_op                                     CMakeFiles/kiibohd.elf.dir/Debug/print/print.c.o
hexToStr_op                                       CMakeFiles/kiibohd.elf.dir/Debug/print/print.c.o
i2c0_isr                                          CMakeFiles/kiibohd.elf.dir/Scan/ISSILed/led_scan.c.o
                                                  CMakeFiles/kiibohd.elf.dir/Lib/mk20dx.c.o
i2c1_isr                                          CMakeFiles/kiibohd.elf.dir/Lib/mk20dx.c.o
i2c2_isr                                          CMakeFiles/kiibohd.elf.dir/Lib/mk20dx.c.o
i2cRecvCLIDict_DescEntry                          CMakeFiles/kiibohd.elf.dir/Scan/ISSILed/led_scan.c.o
i2cSendCLIDict_DescEntry                          CMakeFiles/kiibohd.elf.dir/Scan/ISSILed/led_scan.c.o
i2s0_rx_isr                                       CMakeFiles/kiibohd.elf.dir/Lib/mk20dx.c.o
i2s0_tx_isr                                       CMakeFiles/kiibohd.elf.dir/Lib/mk20dx.c.o
init_errorLED                                     CMakeFiles/kiibohd.elf.dir/Debug/led/led.c.o
                                                  CMakeFiles/kiibohd.elf.dir/Debug/cli/cli.c.o
int16ToStr                                        CMakeFiles/kiibohd.elf.dir/Debug/print/print.c.o
int32ToStr                                        CMakeFiles/kiibohd.elf.dir/Debug/print/print.c.o
int8ToStr                                         CMakeFiles/kiibohd.elf.dir/Debug/print/print.c.o
kbdProtocolCLIDict_DescEntry                      CMakeFiles/kiibohd.elf.dir/Output/pjrcUSB/output_com.c.o
keyHoldCLIDict_DescEntry                          CMakeFiles/kiibohd.elf.dir/Macro/PartialMap/macro.c.o
keyPressCLIDict_DescEntry                         CMakeFiles/kiibohd.elf.dir/Macro/PartialMap/macro.c.o
keyReleaseCLIDict_DescEntry                       CMakeFiles/kiibohd.elf.dir/Macro/PartialMap/macro.c.o
layer1_scanMap                                    CMakeFiles/kiibohd.elf.dir/Macro/PartialMap/macro.c.o
layer1_tl_0x02                                    CMakeFiles/kiibohd.elf.dir/Macro/PartialMap/macro.c.o
layer1_tl_0x03                                    CMakeFiles/kiibohd.elf.dir/Macro/PartialMap/macro.c.o
layer1_tl_0x04                                    CMakeFiles/kiibohd.elf.dir/Macro/PartialMap/macro.c.o
layer1_tl_0x05                                    CMakeFiles/kiibohd.elf.dir/Macro/PartialMap/macro.c.o
layer1_tl_0x06                                    CMakeFiles/kiibohd.elf.dir/Macro/PartialMap/macro.c.o
layer1_tl_0x07                                    CMakeFiles/kiibohd.elf.dir/Macro/PartialMap/macro.c.o
layer1_tl_0x08                                    CMakeFiles/kiibohd.elf.dir/Macro/PartialMap/macro.c.o
layer1_tl_0x09                                    CMakeFiles/kiibohd.elf.dir/Macro/PartialMap/macro.c.o
layer1_tl_0x0A                                    CMakeFiles/kiibohd.elf.dir/Macro/PartialMap/macro.c.o
layer1_tl_0x0B                                    CMakeFiles/kiibohd.elf.dir/Macro/PartialMap/macro.c.o
layer1_tl_0x0C                                    CMakeFiles/kiibohd.elf.dir/Macro/PartialMap/macro.c.o
layer1_tl_0x0D                                    CMakeFiles/kiibohd.elf.dir/Macro/PartialMap/macro.c.o
layer1_tl_0x0E                                    CMakeFiles/kiibohd.elf.dir/Macro/PartialMap/macro.c.o
layer1_tl_0x0F                                    CMakeFiles/kiibohd.elf.dir/Macro/PartialMap/macro.c.o
layer1_tl_0x10                                    CMakeFiles/kiibohd.elf.dir/Macro/PartialMap/macro.c.o
layer1_tl_0x11                                    CMakeFiles/kiibohd.elf.dir/Macro/PartialMap/macro.c.o
layer1_tl_0x12                                    CMakeFiles/kiibohd.elf.dir/Macro/PartialMap/macro.c.o
layer1_tl_0x13                                    CMakeFiles/kiibohd.elf.dir/Macro/PartialMap/macro.c.o
layer1_tl_0x14                                    CMakeFiles/kiibohd.elf.dir/Macro/PartialMap/macro.c.o
layer1_tl_0x15                                    CMakeFiles/kiibohd.elf.dir/Macro/PartialMap/macro.c.o
layer1_tl_0x16                                    CMakeFiles/kiibohd.elf.dir/Macro/PartialMap/macro.c.o
layer1_tl_0x17                                    CMakeFiles/kiibohd.elf.dir/Macro/PartialMap/macro.c.o
layer1_tl_0x18                                    CMakeFiles/kiibohd.elf.dir/Macro/PartialMap/macro.c.o
layer1_tl_0x19                                    CMakeFiles/kiibohd.elf.dir/Macro/PartialMap/macro.c.o
layer1_tl_0x1A                                    CMakeFiles/kiibohd.elf.dir/Macro/PartialMap/macro.c.o
layer1_tl_0x1B                                    CMakeFiles/kiibohd.elf.dir/Macro/PartialMap/macro.c.o
layer1_tl_0x1C                                    CMakeFiles/kiibohd.elf.dir/Macro/PartialMap/macro.c.o
layer1_tl_0x1D                                    CMakeFiles/kiibohd.elf.dir/Macro/PartialMap/macro.c.o
layer1_tl_0x1E                                    CMakeFiles/kiibohd.elf.dir/Macro/PartialMap/macro.c.o
layer1_tl_0x1F                                    CMakeFiles/kiibohd.elf.dir/Macro/PartialMap/macro.c.o
layer1_tl_0x20                                    CMakeFiles/kiibohd.elf.dir/Macro/PartialMap/macro.c.o
layer1_tl_0x21                                    CMakeFiles/kiibohd.elf.dir/Macro/PartialMap/macro.c.o
layer1_tl_0x22                                    CMakeFiles/kiibohd.elf.dir/Macro/PartialMap/macro.c.o
layer1_tl_0x23                                    CMakeFiles/kiibohd.elf.dir/Macro/PartialMap/macro.c.o
layer1_tl_0x24                                    CMakeFiles/kiibohd.elf.dir/Macro/PartialMap/macro.c.o
layer1_tl_0x25                                    CMakeFiles/kiibohd.elf.dir/Macro/PartialMap/macro.c.o
layer1_tl_0x26                                    CMakeFiles/kiibohd.elf.dir/Macro/PartialMap/macro.c.o
layer1_tl_0x27                                    CMakeFiles/kiibohd.elf.dir/Macro/PartialMap/macro.c.o
layer1_tl_0x28                                    CMakeFiles/kiibohd.elf.dir/Macro/PartialMap/macro.c.o
layer1_tl_0x29                                    CMakeFiles/kiibohd.elf.dir/Macro/PartialMap/macro.c.o
layer1_tl_0x2A                                    CMakeFiles/kiibohd.elf.dir/Macro/PartialMap/macro.c.o
layer1_tl_0x2B                                    CMakeFiles/kiibohd.elf.dir/Macro/PartialMap/macro.c.o
layer1_tl_0x2C                                    CMakeFiles/kiibohd.elf.dir/Macro/PartialMap/macro.c.o
layer1_tl_0x2D                                    CMakeFiles/kiibohd.elf.dir/Macro/PartialMap/macro.c.o
layer1_tl_0x2E                                    CMakeFiles/kiibohd.elf.dir/Macro/PartialMap/macro.c.o
layer1_tl_0x2F                                    CMakeFiles/kiibohd.elf.dir/Macro/PartialMap/macro.c.o
layer1_tl_0x30                                    CMakeFiles/kiibohd.elf.dir/Macro/PartialMap/macro.c.o
layer1_tl_0x31                                    CMakeFiles/kiibohd.elf.dir/Macro/PartialMap/macro.c.o
layer1_tl_0x32                                    CMakeFiles/kiibohd.elf.dir/Macro/PartialMap/macro.c.o
layer1_tl_0x33                                    CMakeFiles/kiibohd.elf.dir/Macro/PartialMap/macro.c.o
layer1_tl_0x34                                    CMakeFiles/kiibohd.elf.dir/Macro/PartialMap/macro.c.o
layer1_tl_0x35                                    CMakeFiles/kiibohd.elf.dir/Macro/PartialMap/macro.c.o
layer2_scanMap                                    CMakeFiles/kiibohd.elf.dir/Macro/PartialMap/macro.c.o
layer2_tl_0x04                                    CMakeFiles/kiibohd.elf.dir/Macro/PartialMap/macro.c.o
layer2_tl_0x05                                    CMakeFiles/kiibohd.elf.dir/Macro/PartialMap/macro.c.o
layer2_tl_0x06                                    CMakeFiles/kiibohd.elf.dir/Macro/PartialMap/macro.c.o
layer2_tl_0x07                                    CMakeFiles/kiibohd.elf.dir/Macro/PartialMap/macro.c.o
layer2_tl_0x08                                    CMakeFiles/kiibohd.elf.dir/Macro/PartialMap/macro.c.o
layer2_tl_0x09                                    CMakeFiles/kiibohd.elf.dir/Macro/PartialMap/macro.c.o
layer2_tl_0x0A                                    CMakeFiles/kiibohd.elf.dir/Macro/PartialMap/macro.c.o
layer2_tl_0x0B                                    CMakeFiles/kiibohd.elf.dir/Macro/PartialMap/macro.c.o
layer2_tl_0x0C                                    CMakeFiles/kiibohd.elf.dir/Macro/PartialMap/macro.c.o
layer2_tl_0x0D                                    CMakeFiles/kiibohd.elf.dir/Macro/PartialMap/macro.c.o
layer2_tl_0x0E                                    CMakeFiles/kiibohd.elf.dir/Macro/PartialMap/macro.c.o
layer2_tl_0x0F                                    CMakeFiles/kiibohd.elf.dir/Macro/PartialMap/macro.c.o
layer2_tl_0x10                                    CMakeFiles/kiibohd.elf.dir/Macro/PartialMap/macro.c.o
layer2_tl_0x11                                    CMakeFiles/kiibohd.elf.dir/Macro/PartialMap/macro.c.o
layer2_tl_0x12                                    CMakeFiles/kiibohd.elf.dir/Macro/PartialMap/macro.c.o
layer2_tl_0x13                                    CMakeFiles/kiibohd.elf.dir/Macro/PartialMap/macro.c.o
layer2_tl_0x14                                    CMakeFiles/kiibohd.elf.dir/Macro/PartialMap/macro.c.o
layer2_tl_0x15                                    CMakeFiles/kiibohd.elf.dir/Macro/PartialMap/macro.c.o
layer2_tl_0x16                                    CMakeFiles/kiibohd.elf.dir/Macro/PartialMap/macro.c.o
layer2_tl_0x17                                    CMakeFiles/kiibohd.elf.dir/Macro/PartialMap/macro.c.o
layer2_tl_0x18                                    CMakeFiles/kiibohd.elf.dir/Macro/PartialMap/macro.c.o
layer2_tl_0x19                                    CMakeFiles/kiibohd.elf.dir/Macro/PartialMap/macro.c.o
layer2_tl_0x1A                                    CMakeFiles/kiibohd.elf.dir/Macro/PartialMap/macro.c.o
layer2_tl_0x1B                                    CMakeFiles/kiibohd.elf.dir/Macro/PartialMap/macro.c.o
layer2_tl_0x1C                                    CMakeFiles/kiibohd.elf.dir/Macro/PartialMap/macro.c.o
layer2_tl_0x1D                                    CMakeFiles/kiibohd.elf.dir/Macro/PartialMap/macro.c.o
layer2_tl_0x1E                                    CMakeFiles/kiibohd.elf.dir/Macro/PartialMap/macro.c.o
layer2_tl_0x1F                                    CMakeFiles/kiibohd.elf.dir/Macro/PartialMap/macro.c.o
layer2_tl_0x20                                    CMakeFiles/kiibohd.elf.dir/Macro/PartialMap/macro.c.o
layer2_tl_0x21                                    CMakeFiles/kiibohd.elf.dir/Macro/PartialMap/macro.c.o
layer2_tl_0x22                                    CMakeFiles/kiibohd.elf.dir/Macro/PartialMap/macro.c.o
layer2_tl_0x23                                    CMakeFiles/kiibohd.elf.dir/Macro/PartialMap/macro.c.o
layer2_tl_0x24                                    CMakeFiles/kiibohd.elf.dir/Macro/PartialMap/macro.c.o
layer2_tl_0x25                                    CMakeFiles/kiibohd.elf.dir/Macro/PartialMap/macro.c.o
layer2_tl_0x26                                    CMakeFiles/kiibohd.elf.dir/Macro/PartialMap/macro.c.o
layer2_tl_0x27                                    CMakeFiles/kiibohd.elf.dir/Macro/PartialMap/macro.c.o
layer2_tl_0x28                                    CMakeFiles/kiibohd.elf.dir/Macro/PartialMap/macro.c.o
layer2_tl_0x29                                    CMakeFiles/kiibohd.elf.dir/Macro/PartialMap/macro.c.o
layer2_tl_0x2A                                    CMakeFiles/kiibohd.elf.dir/Macro/PartialMap/macro.c.o
layer2_tl_0x2B                                    CMakeFiles/kiibohd.elf.dir/Macro/PartialMap/macro.c.o
layer2_tl_0x2C                                    CMakeFiles/kiibohd.elf.dir/Macro/PartialMap/macro.c.o
layer2_tl_0x2D                                    CMakeFiles/kiibohd.elf.dir/Macro/PartialMap/macro.c.o
layer2_tl_0x2E                                    CMakeFiles/kiibohd.elf.dir/Macro/PartialMap/macro.c.o
layer2_tl_0x2F                                    CMakeFiles/kiibohd.elf.dir/Macro/PartialMap/macro.c.o
layer2_tl_0x30                                    CMakeFiles/kiibohd.elf.dir/Macro/PartialMap/macro.c.o
layer2_tl_0x31                                    CMakeFiles/kiibohd.elf.dir/Macro/PartialMap/macro.c.o
layer2_tl_0x32                                    CMakeFiles/kiibohd.elf.dir/Macro/PartialMap/macro.c.o
layer2_tl_0x33                                    CMakeFiles/kiibohd.elf.dir/Macro/PartialMap/macro.c.o
layer2_tl_0x34                                    CMakeFiles/kiibohd.elf.dir/Macro/PartialMap/macro.c.o
layer2_tl_0x35                                    CMakeFiles/kiibohd.elf.dir/Macro/PartialMap/macro.c.o
layerDebugCLIDict_DescEntry                       CMakeFiles/kiibohd.elf.dir/Macro/PartialMap/macro.c.o
layerDebugMode                                    CMakeFiles/kiibohd.elf.dir/Macro/PartialMap/macro.c.o
layerListCLIDict_DescEntry                        CMakeFiles/kiibohd.elf.dir/Macro/PartialMap/macro.c.o
layerStateCLIDict_DescEntry                       CMakeFiles/kiibohd.elf.dir/Macro/PartialMap/macro.c.o
lcdCLIDict                                        CMakeFiles/kiibohd.elf.dir/Scan/STLcd/lcd_scan.c.o
lcdCLIDictName                                    CMakeFiles/kiibohd.elf.dir/Scan/STLcd/lcd_scan.c.o
lcdCmdCLIDict_DescEntry                           CMakeFiles/kiibohd.elf.dir/Scan/STLcd/lcd_scan.c.o
lcdColorCLIDict_DescEntry                         CMakeFiles/kiibohd.elf.dir/Scan/STLcd/lcd_scan.c.o
lcdDispCLIDict_DescEntry                          CMakeFiles/kiibohd.elf.dir/Scan/STLcd/lcd_scan.c.o
lcdInitCLIDict_DescEntry                          CMakeFiles/kiibohd.elf.dir/Scan/STLcd/lcd_scan.c.o
lcdTestCLIDict_DescEntry                          CMakeFiles/kiibohd.elf.dir/Scan/STLcd/lcd_scan.c.o
ledCLIDict                                        CMakeFiles/kiibohd.elf.dir/Scan/ISSILed/led_scan.c.o
ledCLIDictName                                    CMakeFiles/kiibohd.elf.dir/Scan/ISSILed/led_scan.c.o
ledCLIDict_DescEntry                              CMakeFiles/kiibohd.elf.dir/Debug/cli/cli.c.o
ledCtrlCLIDict_DescEntry                          CMakeFiles/kiibohd.elf.dir/Scan/ISSILed/led_scan.c.o
ledRPageCLIDict_DescEntry                         CMakeFiles/kiibohd.elf.dir/Scan/ISSILed/led_scan.c.o
ledStartCLIDict_DescEntry                         CMakeFiles/kiibohd.elf.dir/Scan/ISSILed/led_scan.c.o
ledTestCLIDict_DescEntry                          CMakeFiles/kiibohd.elf.dir/Scan/ISSILed/led_scan.c.o
ledWPageCLIDict_DescEntry                         CMakeFiles/kiibohd.elf.dir/Scan/ISSILed/led_scan.c.o
ledZeroCLIDict_DescEntry                          CMakeFiles/kiibohd.elf.dir/Scan/ISSILed/led_scan.c.o
lenStr                                            CMakeFiles/kiibohd.elf.dir/Debug/print/print.c.o
                                                  CMakeFiles/kiibohd.elf.dir/Debug/cli/cli.c.o
low_voltage_isr                                   CMakeFiles/kiibohd.elf.dir/Lib/mk20dx.c.o
lptmr_isr                                         CMakeFiles/kiibohd.elf.dir/Lib/mk20dx.c.o
macroCLIDict                                      CMakeFiles/kiibohd.elf.dir/Macro/PartialMap/macro.c.o
macroCLIDictName                                  CMakeFiles/kiibohd.elf.dir/Macro/PartialMap/macro.c.o
macroDebugCLIDict_DescEntry                       CMakeFiles/kiibohd.elf.dir/Macro/PartialMap/macro.c.o
macroDebugMode                                    CMakeFiles/kiibohd.elf.dir/Macro/PartialMap/macro.c.o
macroDebugShowResult                              CMakeFiles/kiibohd.elf.dir/Macro/PartialMap/macro.c.o
macroDebugShowTrigger                             CMakeFiles/kiibohd.elf.dir/Macro/PartialMap/macro.c.o
macroInterconnectCache                            CMakeFiles/kiibohd.elf.dir/Macro/PartialMap/macro.c.o
macroInterconnectCacheSize                        CMakeFiles/kiibohd.elf.dir/Macro/PartialMap/macro.c.o
macroLayerIndexStack                              CMakeFiles/kiibohd.elf.dir/Macro/PartialMap/macro.c.o
                                                  CMakeFiles/kiibohd.elf.dir/Scan/STLcd/lcd_scan.c.o
macroLayerIndexStackSize                          CMakeFiles/kiibohd.elf.dir/Macro/PartialMap/macro.c.o
                                                  CMakeFiles/kiibohd.elf.dir/Scan/STLcd/lcd_scan.c.o
macroListCLIDict_DescEntry                        CMakeFiles/kiibohd.elf.dir/Macro/PartialMap/macro.c.o
macroPauseMode                                    CMakeFiles/kiibohd.elf.dir/Macro/PartialMap/macro.c.o
macroProcCLIDict_DescEntry                        CMakeFiles/kiibohd.elf.dir/Macro/PartialMap/macro.c.o
macroResultMacroPendingList                       CMakeFiles/kiibohd.elf.dir/Macro/PartialMap/result.c.o
                                                  CMakeFiles/kiibohd.elf.dir/Macro/PartialMap/macro.c.o
macroResultMacroPendingListSize                   CMakeFiles/kiibohd.elf.dir/Macro/PartialMap/result.c.o
                                                  CMakeFiles/kiibohd.elf.dir/Macro/PartialMap/macro.c.o
macroShowCLIDict_DescEntry                        CMakeFiles/kiibohd.elf.dir/Macro/PartialMap/macro.c.o
macroStepCLIDict_DescEntry                        CMakeFiles/kiibohd.elf.dir/Macro/PartialMap/macro.c.o
macroStepCounter                                  CMakeFiles/kiibohd.elf.dir/Macro/PartialMap/macro.c.o
macroTriggerListBuffer                            CMakeFiles/kiibohd.elf.dir/Macro/PartialMap/macro.c.o
                                                  CMakeFiles/kiibohd.elf.dir/Macro/PartialMap/trigger.c.o
macroTriggerListBufferSize                        CMakeFiles/kiibohd.elf.dir/Macro/PartialMap/macro.c.o
                                                  CMakeFiles/kiibohd.elf.dir/Macro/PartialMap/trigger.c.o
macroTriggerListLayerCache                        CMakeFiles/kiibohd.elf.dir/Macro/PartialMap/macro.c.o
macroTriggerMacroPendingList                      CMakeFiles/kiibohd.elf.dir/Macro/PartialMap/trigger.c.o
                                                  CMakeFiles/kiibohd.elf.dir/Macro/PartialMap/macro.c.o
macroTriggerMacroPendingListSize                  CMakeFiles/kiibohd.elf.dir/Macro/PartialMap/trigger.c.o
                                                  CMakeFiles/kiibohd.elf.dir/Macro/PartialMap/macro.c.o
main                                              CMakeFiles/kiibohd.elf.dir/main.c.o
                                                  CMakeFiles/kiibohd.elf.dir/Lib/mk20dx.c.o
matrixCLIDict                                     CMakeFiles/kiibohd.elf.dir/Scan/MatrixARM/matrix_scan.c.o
matrixCLIDictName                                 CMakeFiles/kiibohd.elf.dir/Scan/MatrixARM/matrix_scan.c.o
matrixCurScans                                    CMakeFiles/kiibohd.elf.dir/Scan/MatrixARM/matrix_scan.c.o
matrixDebugCLIDict_DescEntry                      CMakeFiles/kiibohd.elf.dir/Scan/MatrixARM/matrix_scan.c.o
matrixDebugMode                                   CMakeFiles/kiibohd.elf.dir/Scan/MatrixARM/matrix_scan.c.o
matrixDebugStateCounter                           CMakeFiles/kiibohd.elf.dir/Scan/MatrixARM/matrix_scan.c.o
matrixInfoCLIDict_DescEntry                       CMakeFiles/kiibohd.elf.dir/Scan/MatrixARM/matrix_scan.c.o
matrixMaxScans                                    CMakeFiles/kiibohd.elf.dir/Scan/MatrixARM/matrix_scan.c.o
matrixPrevScans                                   CMakeFiles/kiibohd.elf.dir/Scan/MatrixARM/matrix_scan.c.o
matrixStateCLIDict_DescEntry                      CMakeFiles/kiibohd.elf.dir/Scan/MatrixARM/matrix_scan.c.o
mcg_isr                                           CMakeFiles/kiibohd.elf.dir/Lib/mk20dx.c.o
mcm_isr                                           CMakeFiles/kiibohd.elf.dir/Lib/mk20dx.c.o
memcmp                                            CMakeFiles/kiibohd.elf.dir/Lib/mk20dx.c.o
memcpy                                            CMakeFiles/kiibohd.elf.dir/Lib/mk20dx.c.o
                                                  CMakeFiles/kiibohd.elf.dir/Output/pjrcUSB/arm/usb_serial.c.o
                                                  CMakeFiles/kiibohd.elf.dir/Output/pjrcUSB/arm/usb_keyboard.c.o
                                                  CMakeFiles/kiibohd.elf.dir/Output/pjrcUSB/arm/usb_joystick.c.o
                                                  CMakeFiles/kiibohd.elf.dir/Scan/STLcd/lcd_scan.c.o
memmanage_fault_default_isr                       CMakeFiles/kiibohd.elf.dir/Lib/mk20dx.c.o
memmanage_fault_isr                               CMakeFiles/kiibohd.elf.dir/Lib/mk20dx.c.o
memset                                            CMakeFiles/kiibohd.elf.dir/Lib/mk20dx.c.o
                                                  CMakeFiles/kiibohd.elf.dir/Scan/UARTConnect/connect_scan.c.o
                                                  CMakeFiles/kiibohd.elf.dir/Scan/STLcd/lcd_scan.c.o
                                                  CMakeFiles/kiibohd.elf.dir/Scan/ISSILed/led_scan.c.o
micros                                            CMakeFiles/kiibohd.elf.dir/Lib/delay.c.o
nmi_default_isr                                   CMakeFiles/kiibohd.elf.dir/Lib/mk20dx.c.o
nmi_isr                                           CMakeFiles/kiibohd.elf.dir/Lib/mk20dx.c.o
numToInt                                          CMakeFiles/kiibohd.elf.dir/Debug/print/print.c.o
                                                  CMakeFiles/kiibohd.elf.dir/Output/pjrcUSB/output_com.c.o
                                                  CMakeFiles/kiibohd.elf.dir/Macro/PartialMap/macro.c.o
                                                  CMakeFiles/kiibohd.elf.dir/Scan/UARTConnect/connect_scan.c.o
                                                  CMakeFiles/kiibohd.elf.dir/Scan/STLcd/lcd_scan.c.o
                                                  CMakeFiles/kiibohd.elf.dir/Scan/MatrixARM/matrix_scan.c.o
                                                  CMakeFiles/kiibohd.elf.dir/Scan/ISSILed/led_scan.c.o
nvic_execution_priority                           CMakeFiles/kiibohd.elf.dir/Lib/mk20dx.c.o
outputCLIDict                                     CMakeFiles/kiibohd.elf.dir/Output/pjrcUSB/output_com.c.o
outputCLIDictName                                 CMakeFiles/kiibohd.elf.dir/Output/pjrcUSB/output_com.c.o
outputDebugCLIDict_DescEntry                      CMakeFiles/kiibohd.elf.dir/Output/pjrcUSB/output_com.c.o
pdb_isr                                           CMakeFiles/kiibohd.elf.dir/Lib/mk20dx.c.o
pendablesrvreq_isr                                CMakeFiles/kiibohd.elf.dir/Lib/mk20dx.c.o
pit0_isr                                          CMakeFiles/kiibohd.elf.dir/Lib/mk20dx.c.o
pit1_isr                                          CMakeFiles/kiibohd.elf.dir/Lib/mk20dx.c.o
pit2_isr                                          CMakeFiles/kiibohd.elf.dir/Lib/mk20dx.c.o
pit3_isr                                          CMakeFiles/kiibohd.elf.dir/Lib/mk20dx.c.o
porta_isr                                         CMakeFiles/kiibohd.elf.dir/Lib/mk20dx.c.o
portb_isr                                         CMakeFiles/kiibohd.elf.dir/Lib/mk20dx.c.o
portc_isr                                         CMakeFiles/kiibohd.elf.dir/Lib/mk20dx.c.o
portd_isr                                         CMakeFiles/kiibohd.elf.dir/Lib/mk20dx.c.o
porte_isr                                         CMakeFiles/kiibohd.elf.dir/Lib/mk20dx.c.o
printHex32_op                                     CMakeFiles/kiibohd.elf.dir/Debug/print/print.c.o
                                                  CMakeFiles/kiibohd.elf.dir/Debug/cli/cli.c.o
                                                  CMakeFiles/kiibohd.elf.dir/Scan/UARTConnect/connect_scan.c.o
                                                  CMakeFiles/kiibohd.elf.dir/Lib/mk20dx.c.o
printHex_op                                       CMakeFiles/kiibohd.elf.dir/Debug/print/print.c.o
                                                  CMakeFiles/kiibohd.elf.dir/Debug/cli/cli.c.o
                                                  CMakeFiles/kiibohd.elf.dir/Output/pjrcUSB/arm/usb_keyboard.c.o
                                                  CMakeFiles/kiibohd.elf.dir/Output/pjrcUSB/arm/usb_dev.c.o
                                                  CMakeFiles/kiibohd.elf.dir/Output/pjrcUSB/output_com.c.o
                                                  CMakeFiles/kiibohd.elf.dir/Macro/PartialMap/macro.c.o
                                                  CMakeFiles/kiibohd.elf.dir/Scan/UARTConnect/connect_scan.c.o
                                                  CMakeFiles/kiibohd.elf.dir/Scan/STLcd/lcd_scan.c.o
                                                  CMakeFiles/kiibohd.elf.dir/Scan/MatrixARM/matrix_scan.c.o
                                                  CMakeFiles/kiibohd.elf.dir/Scan/ISSILed/led_scan.c.o
printInt16                                        CMakeFiles/kiibohd.elf.dir/Debug/print/print.c.o
                                                  CMakeFiles/kiibohd.elf.dir/Macro/PartialMap/macro.c.o
printInt32                                        CMakeFiles/kiibohd.elf.dir/Debug/print/print.c.o
                                                  CMakeFiles/kiibohd.elf.dir/Output/pjrcUSB/output_com.c.o
printInt8                                         CMakeFiles/kiibohd.elf.dir/Debug/print/print.c.o
                                                  CMakeFiles/kiibohd.elf.dir/Output/pjrcUSB/output_com.c.o
                                                  CMakeFiles/kiibohd.elf.dir/Macro/PartialMap/macro.c.o
                                                  CMakeFiles/kiibohd.elf.dir/Scan/UARTConnect/connect_scan.c.o
                                                  CMakeFiles/kiibohd.elf.dir/Scan/MatrixARM/matrix_scan.c.o
printstrs                                         CMakeFiles/kiibohd.elf.dir/Debug/print/print.c.o
                                                  CMakeFiles/kiibohd.elf.dir/Debug/cli/cli.c.o
readLEDsCLIDict_DescEntry                         CMakeFiles/kiibohd.elf.dir/Output/pjrcUSB/output_com.c.o
reloadCLIDict_DescEntry                           CMakeFiles/kiibohd.elf.dir/Debug/cli/cli.c.o
resetCLIDict_DescEntry                            CMakeFiles/kiibohd.elf.dir/Debug/cli/cli.c.o
restartCLIDict_DescEntry                          CMakeFiles/kiibohd.elf.dir/Debug/cli/cli.c.o
revsStr                                           CMakeFiles/kiibohd.elf.dir/Debug/print/print.c.o
rm0_guide                                         CMakeFiles/kiibohd.elf.dir/Macro/PartialMap/macro.c.o
rm10_guide                                        CMakeFiles/kiibohd.elf.dir/Macro/PartialMap/macro.c.o
rm11_guide                                        CMakeFiles/kiibohd.elf.dir/Macro/PartialMap/macro.c.o
rm12_guide                                        CMakeFiles/kiibohd.elf.dir/Macro/PartialMap/macro.c.o
rm13_guide                                        CMakeFiles/kiibohd.elf.dir/Macro/PartialMap/macro.c.o
rm14_guide                                        CMakeFiles/kiibohd.elf.dir/Macro/PartialMap/macro.c.o
rm15_guide                                        CMakeFiles/kiibohd.elf.dir/Macro/PartialMap/macro.c.o
rm16_guide                                        CMakeFiles/kiibohd.elf.dir/Macro/PartialMap/macro.c.o
rm17_guide                                        CMakeFiles/kiibohd.elf.dir/Macro/PartialMap/macro.c.o
rm18_guide                                        CMakeFiles/kiibohd.elf.dir/Macro/PartialMap/macro.c.o
rm19_guide                                        CMakeFiles/kiibohd.elf.dir/Macro/PartialMap/macro.c.o
rm1_guide                                         CMakeFiles/kiibohd.elf.dir/Macro/PartialMap/macro.c.o
rm20_guide                                        CMakeFiles/kiibohd.elf.dir/Macro/PartialMap/macro.c.o
rm21_guide                                        CMakeFiles/kiibohd.elf.dir/Macro/PartialMap/macro.c.o
rm22_guide                                        CMakeFiles/kiibohd.elf.dir/Macro/PartialMap/macro.c.o
rm23_guide                                        CMakeFiles/kiibohd.elf.dir/Macro/PartialMap/macro.c.o
rm24_guide                                        CMakeFiles/kiibohd.elf.dir/Macro/PartialMap/macro.c.o
rm25_guide                                        CMakeFiles/kiibohd.elf.dir/Macro/PartialMap/macro.c.o
rm26_guide                                        CMakeFiles/kiibohd.elf.dir/Macro/PartialMap/macro.c.o
rm27_guide                                        CMakeFiles/kiibohd.elf.dir/Macro/PartialMap/macro.c.o
rm28_guide                                        CMakeFiles/kiibohd.elf.dir/Macro/PartialMap/macro.c.o
rm29_guide                                        CMakeFiles/kiibohd.elf.dir/Macro/PartialMap/macro.c.o
rm2_guide                                         CMakeFiles/kiibohd.elf.dir/Macro/PartialMap/macro.c.o
rm30_guide                                        CMakeFiles/kiibohd.elf.dir/Macro/PartialMap/macro.c.o
rm31_guide                                        CMakeFiles/kiibohd.elf.dir/Macro/PartialMap/macro.c.o
rm32_guide                                        CMakeFiles/kiibohd.elf.dir/Macro/PartialMap/macro.c.o
rm33_guide                                        CMakeFiles/kiibohd.elf.dir/Macro/PartialMap/macro.c.o
rm34_guide                                        CMakeFiles/kiibohd.elf.dir/Macro/PartialMap/macro.c.o
rm35_guide                                        CMakeFiles/kiibohd.elf.dir/Macro/PartialMap/macro.c.o
rm36_guide                                        CMakeFiles/kiibohd.elf.dir/Macro/PartialMap/macro.c.o
rm37_guide                                        CMakeFiles/kiibohd.elf.dir/Macro/PartialMap/macro.c.o
rm38_guide                                        CMakeFiles/kiibohd.elf.dir/Macro/PartialMap/macro.c.o
rm39_guide                                        CMakeFiles/kiibohd.elf.dir/Macro/PartialMap/macro.c.o
rm3_guide                                         CMakeFiles/kiibohd.elf.dir/Macro/PartialMap/macro.c.o
rm40_guide                                        CMakeFiles/kiibohd.elf.dir/Macro/PartialMap/macro.c.o
rm41_guide                                        CMakeFiles/kiibohd.elf.dir/Macro/PartialMap/macro.c.o
rm42_guide                                        CMakeFiles/kiibohd.elf.dir/Macro/PartialMap/macro.c.o
rm43_guide                                        CMakeFiles/kiibohd.elf.dir/Macro/PartialMap/macro.c.o
rm44_guide                                        CMakeFiles/kiibohd.elf.dir/Macro/PartialMap/macro.c.o
rm45_guide                                        CMakeFiles/kiibohd.elf.dir/Macro/PartialMap/macro.c.o
rm46_guide                                        CMakeFiles/kiibohd.elf.dir/Macro/PartialMap/macro.c.o
rm47_guide                                        CMakeFiles/kiibohd.elf.dir/Macro/PartialMap/macro.c.o
rm48_guide                                        CMakeFiles/kiibohd.elf.dir/Macro/PartialMap/macro.c.o
rm49_guide                                        CMakeFiles/kiibohd.elf.dir/Macro/PartialMap/macro.c.o
rm4_guide                                         CMakeFiles/kiibohd.elf.dir/Macro/PartialMap/macro.c.o
rm50_guide                                        CMakeFiles/kiibohd.elf.dir/Macro/PartialMap/macro.c.o
rm51_guide                                        CMakeFiles/kiibohd.elf.dir/Macro/PartialMap/macro.c.o
rm52_guide                                        CMakeFiles/kiibohd.elf.dir/Macro/PartialMap/macro.c.o
rm53_guide                                        CMakeFiles/kiibohd.elf.dir/Macro/PartialMap/macro.c.o
rm54_guide                                        CMakeFiles/kiibohd.elf.dir/Macro/PartialMap/macro.c.o
rm55_guide                                        CMakeFiles/kiibohd.elf.dir/Macro/PartialMap/macro.c.o
rm56_guide                                        CMakeFiles/kiibohd.elf.dir/Macro/PartialMap/macro.c.o
rm57_guide                                        CMakeFiles/kiibohd.elf.dir/Macro/PartialMap/macro.c.o
rm58_guide                                        CMakeFiles/kiibohd.elf.dir/Macro/PartialMap/macro.c.o
rm59_guide                                        CMakeFiles/kiibohd.elf.dir/Macro/PartialMap/macro.c.o
rm5_guide                                         CMakeFiles/kiibohd.elf.dir/Macro/PartialMap/macro.c.o
rm60_guide                                        CMakeFiles/kiibohd.elf.dir/Macro/PartialMap/macro.c.o
rm61_guide                                        CMakeFiles/kiibohd.elf.dir/Macro/PartialMap/macro.c.o
rm62_guide                                        CMakeFiles/kiibohd.elf.dir/Macro/PartialMap/macro.c.o
rm63_guide                                        CMakeFiles/kiibohd.elf.dir/Macro/PartialMap/macro.c.o
rm64_guide                                        CMakeFiles/kiibohd.elf.dir/Macro/PartialMap/macro.c.o
rm65_guide                                        CMakeFiles/kiibohd.elf.dir/Macro/PartialMap/macro.c.o
rm66_guide                                        CMakeFiles/kiibohd.elf.dir/Macro/PartialMap/macro.c.o
rm67_guide                                        CMakeFiles/kiibohd.elf.dir/Macro/PartialMap/macro.c.o
rm68_guide                                        CMakeFiles/kiibohd.elf.dir/Macro/PartialMap/macro.c.o
rm69_guide                                        CMakeFiles/kiibohd.elf.dir/Macro/PartialMap/macro.c.o
rm6_guide                                         CMakeFiles/kiibohd.elf.dir/Macro/PartialMap/macro.c.o
rm70_guide                                        CMakeFiles/kiibohd.elf.dir/Macro/PartialMap/macro.c.o
rm71_guide                                        CMakeFiles/kiibohd.elf.dir/Macro/PartialMap/macro.c.o
rm72_guide                                        CMakeFiles/kiibohd.elf.dir/Macro/PartialMap/macro.c.o
rm73_guide                                        CMakeFiles/kiibohd.elf.dir/Macro/PartialMap/macro.c.o
rm74_guide                                        CMakeFiles/kiibohd.elf.dir/Macro/PartialMap/macro.c.o
rm75_guide                                        CMakeFiles/kiibohd.elf.dir/Macro/PartialMap/macro.c.o
rm76_guide                                        CMakeFiles/kiibohd.elf.dir/Macro/PartialMap/macro.c.o
rm77_guide                                        CMakeFiles/kiibohd.elf.dir/Macro/PartialMap/macro.c.o
rm78_guide                                        CMakeFiles/kiibohd.elf.dir/Macro/PartialMap/macro.c.o
rm79_guide                                        CMakeFiles/kiibohd.elf.dir/Macro/PartialMap/macro.c.o
rm7_guide                                         CMakeFiles/kiibohd.elf.dir/Macro/PartialMap/macro.c.o
rm80_guide                                        CMakeFiles/kiibohd.elf.dir/Macro/PartialMap/macro.c.o
rm81_guide                                        CMakeFiles/kiibohd.elf.dir/Macro/PartialMap/macro.c.o
rm82_guide                                        CMakeFiles/kiibohd.elf.dir/Macro/PartialMap/macro.c.o
rm83_guide                                        CMakeFiles/kiibohd.elf.dir/Macro/PartialMap/macro.c.o
rm84_guide                                        CMakeFiles/kiibohd.elf.dir/Macro/PartialMap/macro.c.o
rm85_guide                                        CMakeFiles/kiibohd.elf.dir/Macro/PartialMap/macro.c.o
rm86_guide                                        CMakeFiles/kiibohd.elf.dir/Macro/PartialMap/macro.c.o
rm87_guide                                        CMakeFiles/kiibohd.elf.dir/Macro/PartialMap/macro.c.o
rm88_guide                                        CMakeFiles/kiibohd.elf.dir/Macro/PartialMap/macro.c.o
rm89_guide                                        CMakeFiles/kiibohd.elf.dir/Macro/PartialMap/macro.c.o
rm8_guide                                         CMakeFiles/kiibohd.elf.dir/Macro/PartialMap/macro.c.o
rm90_guide                                        CMakeFiles/kiibohd.elf.dir/Macro/PartialMap/macro.c.o
rm91_guide                                        CMakeFiles/kiibohd.elf.dir/Macro/PartialMap/macro.c.o
rm92_guide                                        CMakeFiles/kiibohd.elf.dir/Macro/PartialMap/macro.c.o
rm93_guide                                        CMakeFiles/kiibohd.elf.dir/Macro/PartialMap/macro.c.o
rm94_guide                                        CMakeFiles/kiibohd.elf.dir/Macro/PartialMap/macro.c.o
rm95_guide                                        CMakeFiles/kiibohd.elf.dir/Macro/PartialMap/macro.c.o
rm96_guide                                        CMakeFiles/kiibohd.elf.dir/Macro/PartialMap/macro.c.o
rm97_guide                                        CMakeFiles/kiibohd.elf.dir/Macro/PartialMap/macro.c.o
rm9_guide                                         CMakeFiles/kiibohd.elf.dir/Macro/PartialMap/macro.c.o
rtc_alarm_isr                                     CMakeFiles/kiibohd.elf.dir/Lib/mk20dx.c.o
rtc_seconds_isr                                   CMakeFiles/kiibohd.elf.dir/Lib/mk20dx.c.o
sdhc_isr                                          CMakeFiles/kiibohd.elf.dir/Lib/mk20dx.c.o
sendKeysCLIDict_DescEntry                         CMakeFiles/kiibohd.elf.dir/Output/pjrcUSB/output_com.c.o
setKeysCLIDict_DescEntry                          CMakeFiles/kiibohd.elf.dir/Output/pjrcUSB/output_com.c.o
setModCLIDict_DescEntry                           CMakeFiles/kiibohd.elf.dir/Output/pjrcUSB/output_com.c.o
software_isr                                      CMakeFiles/kiibohd.elf.dir/Lib/mk20dx.c.o
spi0_isr                                          CMakeFiles/kiibohd.elf.dir/Lib/mk20dx.c.o
spi1_isr                                          CMakeFiles/kiibohd.elf.dir/Lib/mk20dx.c.o
spi2_isr                                          CMakeFiles/kiibohd.elf.dir/Lib/mk20dx.c.o
string0                                           CMakeFiles/kiibohd.elf.dir/Output/pjrcUSB/arm/usb_desc.c.o
svcall_isr                                        CMakeFiles/kiibohd.elf.dir/Lib/mk20dx.c.o
sys_reset_to_loader_magic                         CMakeFiles/kiibohd.elf.dir/Lib/mk20dx.c.o
                                                  CMakeFiles/kiibohd.elf.dir/Output/pjrcUSB/arm/usb_dev.c.o
systick_default_isr                               CMakeFiles/kiibohd.elf.dir/Lib/mk20dx.c.o
systick_isr                                       CMakeFiles/kiibohd.elf.dir/Lib/mk20dx.c.o
systick_millis_count                              CMakeFiles/kiibohd.elf.dir/Lib/delay.c.o
                                                  CMakeFiles/kiibohd.elf.dir/Output/pjrcUSB/arm/usb_dev.c.o
                                                  CMakeFiles/kiibohd.elf.dir/Scan/UARTConnect/connect_scan.c.o
                                                  CMakeFiles/kiibohd.elf.dir/Scan/MatrixARM/matrix_scan.c.o
                                                  CMakeFiles/kiibohd.elf.dir/Scan/ISSILed/led_scan.c.o
                                                  CMakeFiles/kiibohd.elf.dir/Lib/mk20dx.c.o
tm0_guide                                         CMakeFiles/kiibohd.elf.dir/Macro/PartialMap/macro.c.o
tm100_guide                                       CMakeFiles/kiibohd.elf.dir/Macro/PartialMap/macro.c.o
tm101_guide                                       CMakeFiles/kiibohd.elf.dir/Macro/PartialMap/macro.c.o
tm102_guide                                       CMakeFiles/kiibohd.elf.dir/Macro/PartialMap/macro.c.o
tm103_guide                                       CMakeFiles/kiibohd.elf.dir/Macro/PartialMap/macro.c.o
tm104_guide                                       CMakeFiles/kiibohd.elf.dir/Macro/PartialMap/macro.c.o
tm105_guide                                       CMakeFiles/kiibohd.elf.dir/Macro/PartialMap/macro.c.o
tm106_guide                                       CMakeFiles/kiibohd.elf.dir/Macro/PartialMap/macro.c.o
tm107_guide                                       CMakeFiles/kiibohd.elf.dir/Macro/PartialMap/macro.c.o
tm108_guide                                       CMakeFiles/kiibohd.elf.dir/Macro/PartialMap/macro.c.o
tm10_guide                                        CMakeFiles/kiibohd.elf.dir/Macro/PartialMap/macro.c.o
tm11_guide                                        CMakeFiles/kiibohd.elf.dir/Macro/PartialMap/macro.c.o
tm12_guide                                        CMakeFiles/kiibohd.elf.dir/Macro/PartialMap/macro.c.o
tm13_guide                                        CMakeFiles/kiibohd.elf.dir/Macro/PartialMap/macro.c.o
tm14_guide                                        CMakeFiles/kiibohd.elf.dir/Macro/PartialMap/macro.c.o
tm15_guide                                        CMakeFiles/kiibohd.elf.dir/Macro/PartialMap/macro.c.o
tm16_guide                                        CMakeFiles/kiibohd.elf.dir/Macro/PartialMap/macro.c.o
tm17_guide                                        CMakeFiles/kiibohd.elf.dir/Macro/PartialMap/macro.c.o
tm18_guide                                        CMakeFiles/kiibohd.elf.dir/Macro/PartialMap/macro.c.o
tm19_guide                                        CMakeFiles/kiibohd.elf.dir/Macro/PartialMap/macro.c.o
tm1_guide                                         CMakeFiles/kiibohd.elf.dir/Macro/PartialMap/macro.c.o
tm20_guide                                        CMakeFiles/kiibohd.elf.dir/Macro/PartialMap/macro.c.o
tm21_guide                                        CMakeFiles/kiibohd.elf.dir/Macro/PartialMap/macro.c.o
tm22_guide                                        CMakeFiles/kiibohd.elf.dir/Macro/PartialMap/macro.c.o
tm23_guide                                        CMakeFiles/kiibohd.elf.dir/Macro/PartialMap/macro.c.o
tm24_guide                                        CMakeFiles/kiibohd.elf.dir/Macro/PartialMap/macro.c.o
tm25_guide                                        CMakeFiles/kiibohd.elf.dir/Macro/PartialMap/macro.c.o
tm26_guide                                        CMakeFiles/kiibohd.elf.dir/Macro/PartialMap/macro.c.o
tm27_guide                                        CMakeFiles/kiibohd.elf.dir/Macro/PartialMap/macro.c.o
tm28_guide                                        CMakeFiles/kiibohd.elf.dir/Macro/PartialMap/macro.c.o
tm29_guide                                        CMakeFiles/kiibohd.elf.dir/Macro/PartialMap/macro.c.o
tm2_guide                                         CMakeFiles/kiibohd.elf.dir/Macro/PartialMap/macro.c.o
tm30_guide                                        CMakeFiles/kiibohd.elf.dir/Macro/PartialMap/macro.c.o
tm31_guide                                        CMakeFiles/kiibohd.elf.dir/Macro/PartialMap/macro.c.o
tm32_guide                                        CMakeFiles/kiibohd.elf.dir/Macro/PartialMap/macro.c.o
tm33_guide                                        CMakeFiles/kiibohd.elf.dir/Macro/PartialMap/macro.c.o
tm34_guide                                        CMakeFiles/kiibohd.elf.dir/Macro/PartialMap/macro.c.o
tm35_guide                                        CMakeFiles/kiibohd.elf.dir/Macro/PartialMap/macro.c.o
tm36_guide                                        CMakeFiles/kiibohd.elf.dir/Macro/PartialMap/macro.c.o
tm37_guide                                        CMakeFiles/kiibohd.elf.dir/Macro/PartialMap/macro.c.o
tm38_guide                                        CMakeFiles/kiibohd.elf.dir/Macro/PartialMap/macro.c.o
tm39_guide                                        CMakeFiles/kiibohd.elf.dir/Macro/PartialMap/macro.c.o
tm3_guide                                         CMakeFiles/kiibohd.elf.dir/Macro/PartialMap/macro.c.o
tm40_guide                                        CMakeFiles/kiibohd.elf.dir/Macro/PartialMap/macro.c.o
tm41_guide                                        CMakeFiles/kiibohd.elf.dir/Macro/PartialMap/macro.c.o
tm42_guide                                        CMakeFiles/kiibohd.elf.dir/Macro/PartialMap/macro.c.o
tm43_guide                                        CMakeFiles/kiibohd.elf.dir/Macro/PartialMap/macro.c.o
tm44_guide                                        CMakeFiles/kiibohd.elf.dir/Macro/PartialMap/macro.c.o
tm45_guide                                        CMakeFiles/kiibohd.elf.dir/Macro/PartialMap/macro.c.o
tm46_guide                                        CMakeFiles/kiibohd.elf.dir/Macro/PartialMap/macro.c.o
tm47_guide                                        CMakeFiles/kiibohd.elf.dir/Macro/PartialMap/macro.c.o
tm48_guide                                        CMakeFiles/kiibohd.elf.dir/Macro/PartialMap/macro.c.o
tm49_guide                                        CMakeFiles/kiibohd.elf.dir/Macro/PartialMap/macro.c.o
tm4_guide                                         CMakeFiles/kiibohd.elf.dir/Macro/PartialMap/macro.c.o
tm50_guide                                        CMakeFiles/kiibohd.elf.dir/Macro/PartialMap/macro.c.o
tm51_guide                                        CMakeFiles/kiibohd.elf.dir/Macro/PartialMap/macro.c.o
tm52_guide                                        CMakeFiles/kiibohd.elf.dir/Macro/PartialMap/macro.c.o
tm53_guide                                        CMakeFiles/kiibohd.elf.dir/Macro/PartialMap/macro.c.o
tm54_guide                                        CMakeFiles/kiibohd.elf.dir/Macro/PartialMap/macro.c.o
tm55_guide                                        CMakeFiles/kiibohd.elf.dir/Macro/PartialMap/macro.c.o
tm56_guide                                        CMakeFiles/kiibohd.elf.dir/Macro/PartialMap/macro.c.o
tm57_guide                                        CMakeFiles/kiibohd.elf.dir/Macro/PartialMap/macro.c.o
tm58_guide                                        CMakeFiles/kiibohd.elf.dir/Macro/PartialMap/macro.c.o
tm59_guide                                        CMakeFiles/kiibohd.elf.dir/Macro/PartialMap/macro.c.o
tm5_guide                                         CMakeFiles/kiibohd.elf.dir/Macro/PartialMap/macro.c.o
tm60_guide                                        CMakeFiles/kiibohd.elf.dir/Macro/PartialMap/macro.c.o
tm61_guide                                        CMakeFiles/kiibohd.elf.dir/Macro/PartialMap/macro.c.o
tm62_guide                                        CMakeFiles/kiibohd.elf.dir/Macro/PartialMap/macro.c.o
tm63_guide                                        CMakeFiles/kiibohd.elf.dir/Macro/PartialMap/macro.c.o
tm64_guide                                        CMakeFiles/kiibohd.elf.dir/Macro/PartialMap/macro.c.o
tm65_guide                                        CMakeFiles/kiibohd.elf.dir/Macro/PartialMap/macro.c.o
tm66_guide                                        CMakeFiles/kiibohd.elf.dir/Macro/PartialMap/macro.c.o
tm67_guide                                        CMakeFiles/kiibohd.elf.dir/Macro/PartialMap/macro.c.o
tm68_guide                                        CMakeFiles/kiibohd.elf.dir/Macro/PartialMap/macro.c.o
tm69_guide                                        CMakeFiles/kiibohd.elf.dir/Macro/PartialMap/macro.c.o
tm6_guide                                         CMakeFiles/kiibohd.elf.dir/Macro/PartialMap/macro.c.o
tm70_guide                                        CMakeFiles/kiibohd.elf.dir/Macro/PartialMap/macro.c.o
tm71_guide                                        CMakeFiles/kiibohd.elf.dir/Macro/PartialMap/macro.c.o
tm72_guide                                        CMakeFiles/kiibohd.elf.dir/Macro/PartialMap/macro.c.o
tm73_guide                                        CMakeFiles/kiibohd.elf.dir/Macro/PartialMap/macro.c.o
tm74_guide                                        CMakeFiles/kiibohd.elf.dir/Macro/PartialMap/macro.c.o
tm75_guide                                        CMakeFiles/kiibohd.elf.dir/Macro/PartialMap/macro.c.o
tm76_guide                                        CMakeFiles/kiibohd.elf.dir/Macro/PartialMap/macro.c.o
tm77_guide                                        CMakeFiles/kiibohd.elf.dir/Macro/PartialMap/macro.c.o
tm78_guide                                        CMakeFiles/kiibohd.elf.dir/Macro/PartialMap/macro.c.o
tm79_guide                                        CMakeFiles/kiibohd.elf.dir/Macro/PartialMap/macro.c.o
tm7_guide                                         CMakeFiles/kiibohd.elf.dir/Macro/PartialMap/macro.c.o
tm80_guide                                        CMakeFiles/kiibohd.elf.dir/Macro/PartialMap/macro.c.o
tm81_guide                                        CMakeFiles/kiibohd.elf.dir/Macro/PartialMap/macro.c.o
tm82_guide                                        CMakeFiles/kiibohd.elf.dir/Macro/PartialMap/macro.c.o
tm83_guide                                        CMakeFiles/kiibohd.elf.dir/Macro/PartialMap/macro.c.o
tm84_guide                                        CMakeFiles/kiibohd.elf.dir/Macro/PartialMap/macro.c.o
tm85_guide                                        CMakeFiles/kiibohd.elf.dir/Macro/PartialMap/macro.c.o
tm86_guide                                        CMakeFiles/kiibohd.elf.dir/Macro/PartialMap/macro.c.o
tm87_guide                                        CMakeFiles/kiibohd.elf.dir/Macro/PartialMap/macro.c.o
tm88_guide                                        CMakeFiles/kiibohd.elf.dir/Macro/PartialMap/macro.c.o
tm89_guide                                        CMakeFiles/kiibohd.elf.dir/Macro/PartialMap/macro.c.o
tm8_guide                                         CMakeFiles/kiibohd.elf.dir/Macro/PartialMap/macro.c.o
tm90_guide                                        CMakeFiles/kiibohd.elf.dir/Macro/PartialMap/macro.c.o
tm91_guide                                        CMakeFiles/kiibohd.elf.dir/Macro/PartialMap/macro.c.o
tm92_guide                                        CMakeFiles/kiibohd.elf.dir/Macro/PartialMap/macro.c.o
tm93_guide                                        CMakeFiles/kiibohd.elf.dir/Macro/PartialMap/macro.c.o
tm94_guide                                        CMakeFiles/kiibohd.elf.dir/Macro/PartialMap/macro.c.o
tm95_guide                                        CMakeFiles/kiibohd.elf.dir/Macro/PartialMap/macro.c.o
tm96_guide                                        CMakeFiles/kiibohd.elf.dir/Macro/PartialMap/macro.c.o
tm97_guide                                        CMakeFiles/kiibohd.elf.dir/Macro/PartialMap/macro.c.o
tm98_guide                                        CMakeFiles/kiibohd.elf.dir/Macro/PartialMap/macro.c.o
tm99_guide                                        CMakeFiles/kiibohd.elf.dir/Macro/PartialMap/macro.c.o
tm9_guide                                         CMakeFiles/kiibohd.elf.dir/Macro/PartialMap/macro.c.o
tsi0_isr                                          CMakeFiles/kiibohd.elf.dir/Lib/mk20dx.c.o
uart0_error_isr                                   CMakeFiles/kiibohd.elf.dir/Lib/mk20dx.c.o
uart0_lon_isr                                     CMakeFiles/kiibohd.elf.dir/Lib/mk20dx.c.o
uart0_status_isr                                  CMakeFiles/kiibohd.elf.dir/Lib/mk20dx.c.o
uart1_error_isr                                   CMakeFiles/kiibohd.elf.dir/Lib/mk20dx.c.o
uart1_status_isr                                  CMakeFiles/kiibohd.elf.dir/Lib/mk20dx.c.o
uart2_error_isr                                   CMakeFiles/kiibohd.elf.dir/Lib/mk20dx.c.o
uart2_status_isr                                  CMakeFiles/kiibohd.elf.dir/Lib/mk20dx.c.o
uart3_error_isr                                   CMakeFiles/kiibohd.elf.dir/Lib/mk20dx.c.o
uart3_status_isr                                  CMakeFiles/kiibohd.elf.dir/Lib/mk20dx.c.o
uart4_error_isr                                   CMakeFiles/kiibohd.elf.dir/Lib/mk20dx.c.o
uart4_status_isr                                  CMakeFiles/kiibohd.elf.dir/Lib/mk20dx.c.o
uart5_error_isr                                   CMakeFiles/kiibohd.elf.dir/Lib/mk20dx.c.o
uart5_status_isr                                  CMakeFiles/kiibohd.elf.dir/Lib/mk20dx.c.o
uartConnectCLIDict                                CMakeFiles/kiibohd.elf.dir/Scan/UARTConnect/connect_scan.c.o
uartConnectCLIDictName                            CMakeFiles/kiibohd.elf.dir/Scan/UARTConnect/connect_scan.c.o
uart_rx_buf                                       CMakeFiles/kiibohd.elf.dir/Scan/UARTConnect/connect_scan.c.o
uart_rx_status                                    CMakeFiles/kiibohd.elf.dir/Scan/UARTConnect/connect_scan.c.o
uart_tx_buf                                       CMakeFiles/kiibohd.elf.dir/Scan/UARTConnect/connect_scan.c.o
uart_tx_status                                    CMakeFiles/kiibohd.elf.dir/Scan/UARTConnect/connect_scan.c.o
uarts_configured                                  CMakeFiles/kiibohd.elf.dir/Scan/UARTConnect/connect_scan.c.o
unused_isr                                        CMakeFiles/kiibohd.elf.dir/Lib/mk20dx.c.o
usage_fault_default_isr                           CMakeFiles/kiibohd.elf.dir/Lib/mk20dx.c.o
usage_fault_isr                                   CMakeFiles/kiibohd.elf.dir/Lib/mk20dx.c.o
usb_bMaxPower                                     CMakeFiles/kiibohd.elf.dir/Output/pjrcUSB/arm/usb_desc.c.o
                                                  CMakeFiles/kiibohd.elf.dir/Output/pjrcUSB/arm/usb_dev.c.o
usb_buffer_memory                                 CMakeFiles/kiibohd.elf.dir/Output/pjrcUSB/arm/usb_mem.c.o
usb_cdc_line_coding                               CMakeFiles/kiibohd.elf.dir/Output/pjrcUSB/arm/usb_serial.c.o
                                                  CMakeFiles/kiibohd.elf.dir/Output/pjrcUSB/arm/usb_dev.c.o
usb_cdc_line_rtsdtr                               CMakeFiles/kiibohd.elf.dir/Output/pjrcUSB/arm/usb_serial.c.o
                                                  CMakeFiles/kiibohd.elf.dir/Output/pjrcUSB/arm/usb_dev.c.o
usb_cdc_transmit_flush_timer                      CMakeFiles/kiibohd.elf.dir/Output/pjrcUSB/arm/usb_serial.c.o
                                                  CMakeFiles/kiibohd.elf.dir/Output/pjrcUSB/arm/usb_dev.c.o
usb_charge_isr                                    CMakeFiles/kiibohd.elf.dir/Lib/mk20dx.c.o
usb_configuration                                 CMakeFiles/kiibohd.elf.dir/Output/pjrcUSB/arm/usb_dev.c.o
                                                  CMakeFiles/kiibohd.elf.dir/Output/pjrcUSB/arm/usb_serial.c.o
                                                  CMakeFiles/kiibohd.elf.dir/Output/pjrcUSB/arm/usb_mouse.c.o
                                                  CMakeFiles/kiibohd.elf.dir/Output/pjrcUSB/arm/usb_mem.c.o
                                                  CMakeFiles/kiibohd.elf.dir/Output/pjrcUSB/arm/usb_keyboard.c.o
                                                  CMakeFiles/kiibohd.elf.dir/Output/pjrcUSB/arm/usb_joystick.c.o
usb_configured                                    CMakeFiles/kiibohd.elf.dir/Output/pjrcUSB/arm/usb_dev.c.o
usb_descriptor_list                               CMakeFiles/kiibohd.elf.dir/Output/pjrcUSB/arm/usb_desc.c.o
                                                  CMakeFiles/kiibohd.elf.dir/Output/pjrcUSB/arm/usb_dev.c.o
usb_device_check                                  CMakeFiles/kiibohd.elf.dir/Output/pjrcUSB/arm/usb_dev.c.o
                                                  CMakeFiles/kiibohd.elf.dir/Output/pjrcUSB/output_com.c.o
usb_device_reload                                 CMakeFiles/kiibohd.elf.dir/Output/pjrcUSB/arm/usb_dev.c.o
                                                  CMakeFiles/kiibohd.elf.dir/Output/pjrcUSB/output_com.c.o
usb_endpoint_config_table                         CMakeFiles/kiibohd.elf.dir/Output/pjrcUSB/arm/usb_desc.c.o
                                                  CMakeFiles/kiibohd.elf.dir/Output/pjrcUSB/arm/usb_dev.c.o
usb_free                                          CMakeFiles/kiibohd.elf.dir/Output/pjrcUSB/arm/usb_mem.c.o
                                                  CMakeFiles/kiibohd.elf.dir/Output/pjrcUSB/arm/usb_serial.c.o
                                                  CMakeFiles/kiibohd.elf.dir/Output/pjrcUSB/arm/usb_dev.c.o
usb_init                                          CMakeFiles/kiibohd.elf.dir/Output/pjrcUSB/arm/usb_dev.c.o
                                                  CMakeFiles/kiibohd.elf.dir/Output/pjrcUSB/output_com.c.o
usb_isr                                           CMakeFiles/kiibohd.elf.dir/Output/pjrcUSB/arm/usb_dev.c.o
                                                  CMakeFiles/kiibohd.elf.dir/Lib/mk20dx.c.o
usb_joystick_data                                 CMakeFiles/kiibohd.elf.dir/Output/pjrcUSB/arm/usb_joystick.c.o
usb_joystick_send                                 CMakeFiles/kiibohd.elf.dir/Output/pjrcUSB/arm/usb_joystick.c.o
usb_keyboard_send                                 CMakeFiles/kiibohd.elf.dir/Output/pjrcUSB/arm/usb_keyboard.c.o
                                                  CMakeFiles/kiibohd.elf.dir/Output/pjrcUSB/output_com.c.o
usb_malloc                                        CMakeFiles/kiibohd.elf.dir/Output/pjrcUSB/arm/usb_mem.c.o
                                                  CMakeFiles/kiibohd.elf.dir/Output/pjrcUSB/arm/usb_serial.c.o
                                                  CMakeFiles/kiibohd.elf.dir/Output/pjrcUSB/arm/usb_mouse.c.o
                                                  CMakeFiles/kiibohd.elf.dir/Output/pjrcUSB/arm/usb_keyboard.c.o
                                                  CMakeFiles/kiibohd.elf.dir/Output/pjrcUSB/arm/usb_joystick.c.o
                                                  CMakeFiles/kiibohd.elf.dir/Output/pjrcUSB/arm/usb_dev.c.o
usb_mouse_buttons_state                           CMakeFiles/kiibohd.elf.dir/Output/pjrcUSB/arm/usb_mouse.c.o
usb_mouse_move                                    CMakeFiles/kiibohd.elf.dir/Output/pjrcUSB/arm/usb_mouse.c.o
usb_mouse_position                                CMakeFiles/kiibohd.elf.dir/Output/pjrcUSB/arm/usb_mouse.c.o
usb_mouse_screen_size                             CMakeFiles/kiibohd.elf.dir/Output/pjrcUSB/arm/usb_mouse.c.o
usb_mouse_send                                    CMakeFiles/kiibohd.elf.dir/Output/pjrcUSB/arm/usb_mouse.c.o
                                                  CMakeFiles/kiibohd.elf.dir/Output/pjrcUSB/output_com.c.o
usb_reboot_timer                                  CMakeFiles/kiibohd.elf.dir/Output/pjrcUSB/arm/usb_dev.c.o
usb_rx                                            CMakeFiles/kiibohd.elf.dir/Output/pjrcUSB/arm/usb_dev.c.o
                                                  CMakeFiles/kiibohd.elf.dir/Output/pjrcUSB/arm/usb_serial.c.o
usb_rx_byte_count_data                            CMakeFiles/kiibohd.elf.dir/Output/pjrcUSB/arm/usb_dev.c.o
                                                  CMakeFiles/kiibohd.elf.dir/Output/pjrcUSB/arm/usb_serial.c.o
usb_rx_memory                                     CMakeFiles/kiibohd.elf.dir/Output/pjrcUSB/arm/usb_dev.c.o
                                                  CMakeFiles/kiibohd.elf.dir/Output/pjrcUSB/arm/usb_mem.c.o
usb_rx_memory_needed                              CMakeFiles/kiibohd.elf.dir/Output/pjrcUSB/arm/usb_dev.c.o
                                                  CMakeFiles/kiibohd.elf.dir/Output/pjrcUSB/arm/usb_mem.c.o
usb_serial_available                              CMakeFiles/kiibohd.elf.dir/Output/pjrcUSB/arm/usb_serial.c.o
                                                  CMakeFiles/kiibohd.elf.dir/Output/pjrcUSB/output_com.c.o
usb_serial_flush_callback                         CMakeFiles/kiibohd.elf.dir/Output/pjrcUSB/arm/usb_serial.c.o
                                                  CMakeFiles/kiibohd.elf.dir/Output/pjrcUSB/arm/usb_dev.c.o
usb_serial_flush_input                            CMakeFiles/kiibohd.elf.dir/Output/pjrcUSB/arm/usb_serial.c.o
usb_serial_flush_output                           CMakeFiles/kiibohd.elf.dir/Output/pjrcUSB/arm/usb_serial.c.o
usb_serial_getchar                                CMakeFiles/kiibohd.elf.dir/Output/pjrcUSB/arm/usb_serial.c.o
                                                  CMakeFiles/kiibohd.elf.dir/Output/pjrcUSB/output_com.c.o
usb_serial_peekchar                               CMakeFiles/kiibohd.elf.dir/Output/pjrcUSB/arm/usb_serial.c.o
usb_serial_putchar                                CMakeFiles/kiibohd.elf.dir/Output/pjrcUSB/arm/usb_serial.c.o
                                                  CMakeFiles/kiibohd.elf.dir/Output/pjrcUSB/output_com.c.o
usb_serial_read                                   CMakeFiles/kiibohd.elf.dir/Output/pjrcUSB/arm/usb_serial.c.o
usb_serial_write                                  CMakeFiles/kiibohd.elf.dir/Output/pjrcUSB/arm/usb_serial.c.o
                                                  CMakeFiles/kiibohd.elf.dir/Output/pjrcUSB/output_com.c.o
usb_string_cdc_data_name                          CMakeFiles/kiibohd.elf.dir/Output/pjrcUSB/arm/usb_desc.c.o
usb_string_cdc_status_name                        CMakeFiles/kiibohd.elf.dir/Output/pjrcUSB/arm/usb_desc.c.o
usb_string_joystick_name                          CMakeFiles/kiibohd.elf.dir/Output/pjrcUSB/arm/usb_desc.c.o
usb_string_keyboard_name                          CMakeFiles/kiibohd.elf.dir/Output/pjrcUSB/arm/usb_desc.c.o
usb_string_manufacturer_name                      CMakeFiles/kiibohd.elf.dir/Output/pjrcUSB/arm/usb_desc.c.o
usb_string_manufacturer_name_default              CMakeFiles/kiibohd.elf.dir/Output/pjrcUSB/arm/usb_desc.c.o
usb_string_mouse_name                             CMakeFiles/kiibohd.elf.dir/Output/pjrcUSB/arm/usb_desc.c.o
usb_string_nkro_keyboard_name                     CMakeFiles/kiibohd.elf.dir/Output/pjrcUSB/arm/usb_desc.c.o
usb_string_product_name                           CMakeFiles/kiibohd.elf.dir/Output/pjrcUSB/arm/usb_desc.c.o
usb_string_product_name_default                   CMakeFiles/kiibohd.elf.dir/Output/pjrcUSB/arm/usb_desc.c.o
usb_string_serial_number                          CMakeFiles/kiibohd.elf.dir/Output/pjrcUSB/arm/usb_desc.c.o
usb_string_serial_number_default                  CMakeFiles/kiibohd.elf.dir/Output/pjrcUSB/arm/usb_desc.c.o
usb_string_sys_ctrl_name                          CMakeFiles/kiibohd.elf.dir/Output/pjrcUSB/arm/usb_desc.c.o
usb_tx                                            CMakeFiles/kiibohd.elf.dir/Output/pjrcUSB/arm/usb_dev.c.o
                                                  CMakeFiles/kiibohd.elf.dir/Output/pjrcUSB/arm/usb_serial.c.o
                                                  CMakeFiles/kiibohd.elf.dir/Output/pjrcUSB/arm/usb_mouse.c.o
                                                  CMakeFiles/kiibohd.elf.dir/Output/pjrcUSB/arm/usb_keyboard.c.o
                                                  CMakeFiles/kiibohd.elf.dir/Output/pjrcUSB/arm/usb_joystick.c.o
usb_tx_byte_count                                 CMakeFiles/kiibohd.elf.dir/Output/pjrcUSB/arm/usb_dev.c.o
usb_tx_packet_count                               CMakeFiles/kiibohd.elf.dir/Output/pjrcUSB/arm/usb_dev.c.o
                                                  CMakeFiles/kiibohd.elf.dir/Output/pjrcUSB/arm/usb_serial.c.o
                                                  CMakeFiles/kiibohd.elf.dir/Output/pjrcUSB/arm/usb_mouse.c.o
                                                  CMakeFiles/kiibohd.elf.dir/Output/pjrcUSB/arm/usb_keyboard.c.o
                                                  CMakeFiles/kiibohd.elf.dir/Output/pjrcUSB/arm/usb_joystick.c.o
versionCLIDict_DescEntry                          CMakeFiles/kiibohd.elf.dir/Debug/cli/cli.c.o
wakeup_isr                                        CMakeFiles/kiibohd.elf.dir/Lib/mk20dx.c.o
watchdog_isr                                      CMakeFiles/kiibohd.elf.dir/Lib/mk20dx.c.o
yield                                             CMakeFiles/kiibohd.elf.dir/Lib/delay.c.o
                                                  CMakeFiles/kiibohd.elf.dir/Output/pjrcUSB/arm/usb_serial.c.o
                                                  CMakeFiles/kiibohd.elf.dir/Output/pjrcUSB/arm/usb_mouse.c.o
                                                  CMakeFiles/kiibohd.elf.dir/Output/pjrcUSB/arm/usb_keyboard.c.o
                                                  CMakeFiles/kiibohd.elf.dir/Output/pjrcUSB/arm/usb_joystick.c.o
